0000000000ac42f8 S _DEFAULT_EXECUTION_ID
0000000000ac4318 S _EXECUTION_MAP_SIZE
0000000000e07130 S _FFMPEG_KIT_PIPE_PREFIX
0000000000e070f0 S _FFMPEG_KIT_VERSION
0000000000e07128 S _LIB_NAME
0000000000eda9a0 S _OBJC_CLASS_$_ArchDetect
0000000000eda9c8 S _OBJC_CLASS_$_AtomicLong
0000000000edaab8 S _OBJC_CLASS_$_CallbackData
0000000000eda928 S _OBJC_CLASS_$_ChangelogVC
0000000000eda4f0 S _OBJC_CLASS_$_DVNLongPressGestureRecognizer
0000000000eda888 S _OBJC_CLASS_$_DVNSheetController
0000000000eda5e0 S _OBJC_CLASS_$_DVNSheetPresenter
0000000000eda568 S _OBJC_CLASS_$_Downloader
0000000000eda6a8 S _OBJC_CLASS_$_DownloaderHelper
0000000000eda608 S _OBJC_CLASS_$_FFMpegHelper
0000000000edaa18 S _OBJC_CLASS_$_FFmpegExecution
0000000000edaa90 S _OBJC_CLASS_$_FFmpegKit
0000000000edab08 S _OBJC_CLASS_$_FFmpegKitConfig
0000000000eda7c0 S _OBJC_CLASS_$_GlowUserDefaults
0000000000eda540 S _OBJC_CLASS_$_MPDParser
0000000000eda7e8 S _OBJC_CLASS_$_PseudoDetentController
0000000000eda860 S _OBJC_CLASS_$_PseudoDetentTransitioningDelegate
0000000000eda8d8 S _OBJC_CLASS_$_SettingsViewController
0000000000edab58 S _OBJC_CLASS_$_Statistics
0000000000eda748 S _OBJC_CLASS_$_ToastManager
0000000000eda658 S _OBJC_CLASS_$_ToastView
0000000000eda6f8 S _OBJC_CLASS_$_ToastWindow
0000000000eda478 S _OBJC_CLASS_$_WelcomeVC
0000000000eda978 S _OBJC_METACLASS_$_ArchDetect
0000000000eda9f0 S _OBJC_METACLASS_$_AtomicLong
0000000000edaae0 S _OBJC_METACLASS_$_CallbackData
0000000000eda950 S _OBJC_METACLASS_$_ChangelogVC
0000000000eda4c8 S _OBJC_METACLASS_$_DVNLongPressGestureRecognizer
0000000000eda8b0 S _OBJC_METACLASS_$_DVNSheetController
0000000000eda5b8 S _OBJC_METACLASS_$_DVNSheetPresenter
0000000000eda590 S _OBJC_METACLASS_$_Downloader
0000000000eda6d0 S _OBJC_METACLASS_$_DownloaderHelper
0000000000eda630 S _OBJC_METACLASS_$_FFMpegHelper
0000000000edaa40 S _OBJC_METACLASS_$_FFmpegExecution
0000000000edaa68 S _OBJC_METACLASS_$_FFmpegKit
0000000000edab30 S _OBJC_METACLASS_$_FFmpegKitConfig
0000000000eda798 S _OBJC_METACLASS_$_GlowUserDefaults
0000000000eda518 S _OBJC_METACLASS_$_MPDParser
0000000000eda810 S _OBJC_METACLASS_$_PseudoDetentController
0000000000eda838 S _OBJC_METACLASS_$_PseudoDetentTransitioningDelegate
0000000000eda900 S _OBJC_METACLASS_$_SettingsViewController
0000000000edab80 S _OBJC_METACLASS_$_Statistics
0000000000eda770 S _OBJC_METACLASS_$_ToastManager
0000000000eda680 S _OBJC_METACLASS_$_ToastView
0000000000eda720 S _OBJC_METACLASS_$_ToastWindow
0000000000eda4a0 S _OBJC_METACLASS_$_WelcomeVC
0000000000ac4320 S _RETURN_CODE_CANCEL
0000000000ac431c S _RETURN_CODE_SUCCESS
000000000014e084 T __Z10copy_countILi16EEjPsPKsl
000000000014e204 T __Z10copy_countILi32EEjPsPKsl
000000000014de58 T __Z10copy_countILi4EEjPsPKsl
000000000014dfa8 T __Z10copy_countILi8EEjPsPKsl
000000000014da10 T __Z15count_nonzero_cILi16EEiPKs
000000000014dddc T __Z15count_nonzero_cILi32EEiPKs
000000000014d8bc T __Z15count_nonzero_cILi4EEiPKs
000000000014d914 T __Z15count_nonzero_cILi8EEiPKs
00000000001c4fd4 T __ZN4x26510ThreadPool11getCpuCountEv
00000000001c52ec T __ZN4x26510ThreadPool11stopWorkersEv
00000000001c4940 T __ZN4x26510ThreadPool12tryBondPeersEijRNS_15BondedTaskGroupE
00000000001c4a24 T __ZN4x26510ThreadPool16allocThreadPoolsEP10x265_paramRib
00000000001c4fcc T __ZN4x26510ThreadPool16getNumaNodeCountEv
00000000001c5080 T __ZN4x26510ThreadPool20getFrameThreadsCountEP10x265_parami
00000000001c54d4 T __ZN4x26510ThreadPool21setThreadNodeAffinityEPv
00000000001c4774 T __ZN4x26510ThreadPool24setCurrentThreadAffinityEv
00000000001c48bc T __ZN4x26510ThreadPool24tryAcquireSleepingThreadEjj
00000000001c526c T __ZN4x26510ThreadPool5startEv
00000000001c5148 T __ZN4x26510ThreadPool6createEiiy
00000000001c5138 T __ZN4x26510ThreadPoolC1Ev
00000000001c525c T __ZN4x26510ThreadPoolC2Ev
00000000001c5458 T __ZN4x26510ThreadPoolD1Ev
00000000001c53dc T __ZN4x26510ThreadPoolD2Ev
00000000001c4464 T __ZN4x26510cpu_detectEb
00000000000d4988 T __ZN4x26510edgeFilterEPNS_5FrameEP10x265_param
0000000000ac7206 S __ZN4x26510g_log2SizeE
0000000000ac7f05 S __ZN4x26510g_lpsTableE
00000000014acc28 S __ZN4x26510primitivesE
00000000001c9840 T __ZN4x26510x265_mdateEv
00000000000eac44 T __ZN4x26511FrameFilter10processRowEi
00000000000ea39c T __ZN4x26511FrameFilter14ParallelFilter12processTasksEi
00000000000e9c34 T __ZN4x26511FrameFilter14ParallelFilter13processSaoCTUEPNS_8SAOParamEi
00000000000e9b28 T __ZN4x26511FrameFilter14ParallelFilter15copySaoAboveRefEPKNS_6CUDataEPNS_6PicYuvEji
00000000000eafbc T __ZN4x26511FrameFilter14processPostRowEi
00000000000eb6c4 T __ZN4x26511FrameFilter17computeMEIntegralEi
00000000000e9708 T __ZN4x26511FrameFilter4initEPNS_7EncoderEPNS_12FrameEncoderEij
00000000000e99b8 T __ZN4x26511FrameFilter5startEPNS_5FrameERNS_7EntropyE
00000000000e95f4 T __ZN4x26511FrameFilter7destroyEv
00000000001c4778 T __ZN4x26511JobProvider10tryWakeOneEv
0000000000100808 T __ZN4x26511RateControl10clipQscaleEPNS_5FrameEPNS_16RateControlEntryEd
00000000000fe914 T __ZN4x26511RateControl10splitbUsedEPcPNS_16RateControlEntryE
0000000000104610 T __ZN4x26511RateControl11hrdFullnessEPNS_18SEIBufferingPeriodE
0000000000103b98 T __ZN4x26511RateControl11predictSizeEPNS_9PredictorEdd
0000000000101934 T __ZN4x26511RateControl12fixUnderflowEiiddd
0000000000101768 T __ZN4x26511RateControl13findUnderflowEPdPiS2_ii
00000000000ff1e0 T __ZN4x26511RateControl13reconfigureRCEv
00000000000fe828 T __ZN4x26511RateControl13splitdeltaPOCEPcPNS_16RateControlEntryE
0000000000102668 T __ZN4x26511RateControl13updateVbvPlanEPNS_7EncoderE
0000000000103b44 T __ZN4x26511RateControl14accumPQpUpdateEv
0000000000105450 T __ZN4x26511RateControl14rateControlEndEPNS_5FrameExPNS_16RateControlEntryEPi
00000000000ff7b0 T __ZN4x26511RateControl15analyseABR2PassEy
0000000000104014 T __ZN4x26511RateControl15scenecutAwareQpEPNS_5FrameEd
00000000001051a4 T __ZN4x26511RateControl15updatePredictorEPNS_9PredictorEddd
0000000000104208 T __ZN4x26511RateControl16checkAndResetABREPNS_16RateControlEntryEb
0000000000102658 T __ZN4x26511RateControl16getPredictorTypeEii
0000000000101bd0 T __ZN4x26511RateControl16rateControlStartEPNS_5FrameEPNS_16RateControlEntryEPNS_7EncoderE
0000000000101694 T __ZN4x26511RateControl17countExpectedBitsEii
00000000001049cc T __ZN4x26511RateControl17rowVbvRateControlEPNS_5FrameEjPNS_16RateControlEntryERdPjj
0000000000103e28 T __ZN4x26511RateControl17tuneQScaleForZoneEPNS_16RateControlEntryEd
0000000000103bb0 T __ZN4x26511RateControl18cuTreeReadFor2PassEPNS_5FrameE
00000000001046ec T __ZN4x26511RateControl18predictRowsSizeSumEPNS_5FrameEPNS_16RateControlEntryEdRi
0000000000102680 T __ZN4x26511RateControl18rateEstimateQscaleEPNS_5FrameEPNS_16RateControlEntryE
0000000000105ff0 T __ZN4x26511RateControl18setFinalFrameCountEi
0000000000103ee8 T __ZN4x26511RateControl18tuneQScaleForGrainEd
00000000000fe738 T __ZN4x26511RateControl19initFramePredictorsEv
0000000000100610 T __ZN4x26511RateControl20getDiffLimitedQScaleEPNS_16RateControlEntryEd
00000000001019b0 T __ZN4x26511RateControl20rateControlSliceTypeEi
0000000000ef2320 D __ZN4x26511RateControl21s_defaultStatFileNameE
0000000000ac55c0 S __ZN4x26511RateControl21s_slidingWindowFramesE
00000000001043fc T __ZN4x26511RateControl22rateControlUpdateStatsEPNS_16RateControlEntryE
0000000000103d70 T __ZN4x26511RateControl25tuneAbrQScaleFromFeedbackEd
0000000000105c50 T __ZN4x26511RateControl26writeRateControlFrameStatsEPNS_5FrameEPNS_16RateControlEntryE
00000000000fd04c T __ZN4x26511RateControl4initERKNS_3SPSE
0000000000106064 T __ZN4x26511RateControl7destroyEv
00000000000fc890 T __ZN4x26511RateControl7getZoneEv
00000000000ff4b0 T __ZN4x26511RateControl7initHRDERNS_3SPSE
0000000000101028 T __ZN4x26511RateControl8vbv2PassEyii
000000000010053c T __ZN4x26511RateControl9getQScaleEPNS_16RateControlEntryEd
00000000000fea08 T __ZN4x26511RateControl9initPass2Ev
0000000000106028 T __ZN4x26511RateControl9terminateEv
000000000010521c T __ZN4x26511RateControl9updateVbvExPNS_16RateControlEntryE
00000000000fd048 T __ZN4x26511RateControlC1ER10x265_paramPNS_7EncoderE
00000000000fc8f4 T __ZN4x26511RateControlC2ER10x265_paramPNS_7EncoderE
0000000000aca438 S __ZN4x26511ScalingList10MatrixTypeE
0000000000aca618 S __ZN4x26511ScalingList13MatrixType_DCE
0000000000acaa48 S __ZN4x26511ScalingList13s_quantScalesE
00000000001e4498 T __ZN4x26511ScalingList16parseScalingListEPKc
0000000000acaa60 S __ZN4x26511ScalingList16s_invQuantScalesE
0000000000acaa38 S __ZN4x26511ScalingList16s_numCoefPerSizeE
00000000001e49b8 T __ZN4x26511ScalingList18setupQuantMatricesEi
00000000001e3da8 T __ZN4x26511ScalingList19processDefaultMarixEii
00000000001e689c T __ZN4x26511ScalingList21processScalingListDecEPiS1_iiiiii
00000000001e6824 T __ZN4x26511ScalingList21processScalingListEncEPiS1_iiiiii
00000000001e3e98 T __ZN4x26511ScalingList21setDefaultScalingListEv
00000000001e2d50 T __ZN4x26511ScalingList4initEv
00000000001e2d24 T __ZN4x26511ScalingListC1Ev
00000000001e2cf8 T __ZN4x26511ScalingListC2Ev
00000000001e327c T __ZN4x26511ScalingListD1Ev
00000000001e303c T __ZN4x26511ScalingListD2Ev
00000000000d479c T __ZN4x26511computeEdgeEPhS0_S0_liibh
0000000000ef2814 D __ZN4x26511g_maxCUSizeE
0000000000ef2820 D __ZN4x26511g_maxSlicesE
0000000000ac50cc S __ZN4x26511g_nextStateE
0000000000e077a0 S __ZN4x26511g_scanOrderE
00000000001c9914 T __ZN4x26511general_logEPK10x265_paramPKciS4_z
00000000000e539c T __ZN4x26511getBsLengthEi
00000000001c9878 T __ZN4x26511x265_mallocEm
00000000000e642c T __ZN4x26512FrameEncoder10processRowEii
00000000000e1798 T __ZN4x26512FrameEncoder10threadMainEv
00000000000e5f0c T __ZN4x26512FrameEncoder11encodeSliceEj
00000000000e1bb4 T __ZN4x26512FrameEncoder13compressFrameEv
00000000000e5384 T __ZN4x26512FrameEncoder14WeightAnalysis12processTasksEi
00000000000e14e4 T __ZN4x26512FrameEncoder15initializeGeomsEv
00000000000e53c0 T __ZN4x26512FrameEncoder16writeToneMapInfoEP16x265_sei_payload
00000000000e8228 T __ZN4x26512FrameEncoder17collectDynDataRowERNS_6CUDataEPNS_10FrameStatsE
00000000000e8648 T __ZN4x26512FrameEncoder17getEncodedPictureERNS_7NALListE
00000000000e6564 T __ZN4x26512FrameEncoder17processRowEncoderEiRNS_15ThreadLocalDataE
00000000000e16f8 T __ZN4x26512FrameEncoder18startCompressFrameEPNS_5FrameE
00000000000e5ca4 T __ZN4x26512FrameEncoder19collectDynDataFrameEv
00000000000e83a0 T __ZN4x26512FrameEncoder20collectCTUStatisticsERKNS_6CUDataEPNS_10FrameStatsE
00000000000e6334 T __ZN4x26512FrameEncoder20noiseReductionUpdateEv
00000000000e55e8 T __ZN4x26512FrameEncoder22computeAvgTrainingDataEv
00000000000e5498 T __ZN4x26512FrameEncoder24writeTrailingSEIMessagesEv
00000000000e59ec T __ZN4x26512FrameEncoder25initDecodedPictureHashSEIEiii
00000000000e115c T __ZN4x26512FrameEncoder4initEPNS_7EncoderEii
00000000000e0f40 T __ZN4x26512FrameEncoder7destroyEv
00000000000e0f3c T __ZN4x26512FrameEncoderC1Ev
00000000000e0b7c T __ZN4x26512FrameEncoderC2Ev
00000000000d525c T __ZN4x26512LookaheadTLD10acEnergyCuEPNS_5FrameEjjij
00000000000d58b8 T __ZN4x26512LookaheadTLD11xPreanalyzeEPNS_5FrameE
00000000000d4d8c T __ZN4x26512LookaheadTLD13edgeDensityCuEPNS_5FrameERjjjj
00000000000d5598 T __ZN4x26512LookaheadTLD13xPreanalyzeQpEPNS_5FrameE
00000000000d8090 T __ZN4x26512LookaheadTLD14weightCostLumaERNS_6LowresES2_RNS_11WeightParamE
00000000000d826c T __ZN4x26512LookaheadTLD14weightsAnalyseERNS_6LowresES2_
00000000000d820c T __ZN4x26512LookaheadTLD16allocWeightedRefERNS_6LowresE
00000000000d786c T __ZN4x26512LookaheadTLD19lowresIntraEstimateERNS_6LowresEj
00000000000d6768 T __ZN4x26512LookaheadTLD22calcAdaptiveQuantFrameEPNS_5FrameEP10x265_param
00000000000d5530 T __ZN4x26512LookaheadTLD9lumaSumCuEPNS_5FrameEjjj
00000000001c58d0 T __ZN4x26512MD5TransformEPjS0_
00000000001c4500 T __ZN4x26512WorkerThread10threadMainEv
00000000000ec580 T __ZN4x26512enforceLevelER10x265_paramRNS_3VPSE
0000000000ac667c S __ZN4x26512g_lumaFilterE
0000000000ef281c D __ZN4x26512g_maxCUDepthE
00000000001ce934 T __ZN4x26512parseCpuNameEPKcRbb
00000000001c99fc T __ZN4x26512x265_ssim2dBEd
0000000000ac719c S __ZN4x26513g_chromaScaleE
0000000000ac4ecc S __ZN4x26513g_entropyBitsE
0000000000ac7f00 S __ZN4x26513g_goRiceRangeE
0000000000ac72d0 S __ZN4x26513g_scan8x8diagE
0000000000e07800 S __ZN4x26513g_scanOrderCGE
0000000000ac647c S __ZN4x26513g_zscanToPelXE
0000000000ac657c S __ZN4x26513g_zscanToPelYE
000000000011b4ac T __ZN4x26513weightAnalyseERNS_5SliceERNS_5FrameER10x265_param
0000000000ac8005 S __ZN4x26513x265_exp2_lutE
00000000001c98b8 T __ZN4x26513x265_exp2fix8Ed
00000000000cd1d4 T __ZN4x26514MotionEstimate10initScalesEv
00000000000cd29c T __ZN4x26514MotionEstimate11setSourcePUEPhlliiiiii
00000000000cd320 T __ZN4x26514MotionEstimate11setSourcePUERKNS_3YuvEiiiiiiib
00000000000cdfbc T __ZN4x26514MotionEstimate13subpelCompareEPNS_15ReferencePlanesERKNS_2MVEPFiPKhlS7_lE
00000000000ce47c T __ZN4x26514MotionEstimate14motionEstimateEPNS_15ReferencePlanesERKNS_2MVES5_S5_iPS4_iRS3_jPh
00000000000cd224 T __ZN4x26514MotionEstimate18hpelIterationCountEi
00000000000cd1c4 T __ZN4x26514MotionEstimate4initEi
00000000000cd3dc T __ZN4x26514MotionEstimate8refineMVEPNS_15ReferencePlanesERKNS_2MVES5_S5_RS3_
00000000000cd15c T __ZN4x26514MotionEstimateC1Ev
00000000000cd0f4 T __ZN4x26514MotionEstimateC2Ev
00000000000cd274 T __ZN4x26514MotionEstimateD1Ev
00000000000cd24c T __ZN4x26514MotionEstimateD2Ev
00000000001dfe3c T __ZN4x26514PredictionUnitC1ERKNS_6CUDataERKNS_6CUGeomEi
00000000001dfdf0 T __ZN4x26514PredictionUnitC2ERKNS_6CUDataERKNS_6CUGeomEi
00000000001c9688 T __ZN4x26514checksumFinishEjPh
00000000000ebf4c T __ZN4x26514determineLevelERK10x265_paramRNS_3VPSE
0000000000ac66bc S __ZN4x26514g_chromaFilterE
0000000000ac8068 S __ZN4x26514g_depthScanIdxE
00000000000f2b74 T __ZN4x26514saoCuStatsBO_cEPKsPKhliiPiS4_
00000000000f2bdc T __ZN4x26514saoCuStatsE0_cEPKsPKhliiPiS4_
00000000000f2d90 T __ZN4x26514saoCuStatsE1_cEPKsPKhlPaiiPiS5_
00000000000f2f30 T __ZN4x26514saoCuStatsE2_cEPKsPKhlPaS4_iiPiS5_
00000000000f3120 T __ZN4x26514saoCuStatsE3_cEPKsPKhlPaiiPiS5_
00000000001c92d0 T __ZN4x26514updateChecksumEPKhRjjjlij
00000000001c9694 T __ZN4x26514updateMD5PlaneERNS_10MD5ContextEPKhjjl
00000000001c9a40 T __ZN4x26514x265_qScale2qpEd
00000000001c9a6c T __ZN4x26514x265_qp2qScaleEd
00000000001066e4 T __ZN4x26515MotionReference11applyWeightEjjjj
0000000000106448 T __ZN4x26515MotionReference4initEPNS_6PicYuvEPNS_11WeightParamERK10x265_param
000000000010639c T __ZN4x26515MotionReferenceC1Ev
0000000000106370 T __ZN4x26515MotionReferenceC2Ev
0000000000106408 T __ZN4x26515MotionReferenceD1Ev
00000000001063c8 T __ZN4x26515MotionReferenceD2Ev
000000000011d2f4 T __ZN4x26515extendPicBorderEPhliiii
0000000000ef2810 D __ZN4x26515g_maxLog2CUSizeE
0000000000ac607c S __ZN4x26515g_rasterToZscanE
0000000000ef2818 D __ZN4x26515g_unitSizeDepthE
0000000000ac5c7c S __ZN4x26515g_zscanToRasterE
00000000001d4f94 T __ZN4x26515parseLambdaFileEP10x265_param
0000000000ef23b0 D __ZN4x26515x265_lambda_tabE
00000000001c9ad0 T __ZN4x26515x265_slurp_fileEPKc
0000000000ac81b0 S __ZN4x26516g_ST2084_PQTableE
0000000000ac7ee0 S __ZN4x26516g_lastCoeffTableE
000000000011cb28 T __ZN4x26516setupCPrimitivesERNS_17EncoderPrimitivesE
00000000001d5304 T __ZN4x26516x265_copy_paramsEP10x265_paramS1_
0000000000ef25e0 D __ZN4x26516x265_lambda2_tabE
000000000011cf08 T __ZN4x26516x265_report_simdEP10x265_param
00000000000dcf60 T __ZN4x26517CostEstimateGroup10singleCostEiiib
00000000000dd770 T __ZN4x26517CostEstimateGroup11finishBatchEv
00000000000dfd40 T __ZN4x26517CostEstimateGroup12processTasksEi
00000000000dffd4 T __ZN4x26517CostEstimateGroup14estimateCUCostERNS_12LookaheadTLDEiiiiiPbbib
00000000000df7bc T __ZN4x26517CostEstimateGroup17estimateFrameCostERNS_12LookaheadTLDEiiib
00000000000dd738 T __ZN4x26517CostEstimateGroup3addEiii
00000000000db154 T __ZN4x26517PreLookaheadGroup12processTasksEi
0000000000ac8168 S __ZN4x26517g_YUVtoRGB_BT2020E
0000000000ac56a8 S __ZN4x26517g_sliceTypeToCharE
00000000001cec78 T __ZN4x26517x265_check_paramsEP10x265_param
00000000001d33dc T __ZN4x26517x265_param2stringEP10x265_paramii
00000000001d15cc T __ZN4x26517x265_print_paramsEP10x265_param
0000000000ac8045 S __ZN4x26518g_intraFilterFlagsE
00000000001c68d4 T __ZN4x26519SyntaxElementWriter9writeUvlcEj
00000000001cec14 T __ZN4x26519getParamAspectRatioEP10x265_paramRiS2_
00000000001ceadc T __ZN4x26519setParamAspectRatioEP10x265_paramii
00000000001ded20 T __ZN4x26520PicQPAdaptationLayer6createEjjjjjj
000000000011cbb0 T __ZN4x26520setupAliasPrimitivesERNS_17EncoderPrimitivesE
000000000014aadc T __ZN4x26520setupDCTPrimitives_cERNS_17EncoderPrimitivesE
00000000000f331c T __ZN4x26520setupSaoPrimitives_cERNS_17EncoderPrimitivesE
0000000000ac5a48 S __ZN4x26521lumaPartitionMapTableE
00000000001c9aa4 T __ZN4x26521x265_picturePlaneSizeEiiii
000000000011d1f4 T __ZN4x26521x265_setup_primitivesEP10x265_param
00000000001be3f4 T __ZN4x26522setupIntraPrimitives_cERNS_17EncoderPrimitivesE
000000000011d3c8 T __ZN4x26522setupPixelPrimitives_cERNS_17EncoderPrimitivesE
0000000000ac4c70 S __ZN4x26523SEIuserDataUnregistered20m_uuid_iso_iec_11578E
000000000015602c T __ZN4x26523setupFilterPrimitives_cERNS_17EncoderPrimitivesE
000000000015557c T __ZN4x26524setupLowPassPrimitives_cERNS_17EncoderPrimitivesE
000000000011cb7c T __ZN4x26526enableLowpassDCTPrimitivesERNS_17EncoderPrimitivesE
00000000001c3bd0 T __ZN4x26527setupLoopFilterPrimitives_cERNS_17EncoderPrimitivesE
00000000000e8f34 T __ZN4x26528setupSeaIntegralPrimitives_cERNS_17EncoderPrimitivesE
0000000000ac5c30 S __ZN4x26530x265_chroma_lambda2_offset_tabE
00000000001d1574 T __ZN4x26530x265_param_apply_fastfirstpassEP10x265_param
0000000000ac71e2 S __ZN4x26533g_chroma422IntraAngleMappingTableE
00000000000fc77c T __ZN4x2653DPB10computeRPSEibPNS_3RPSEj
00000000000fc1fc T __ZN4x2653DPB13prepareEncodeEPNS_5FrameE
00000000000fc684 T __ZN4x2653DPB14getNalUnitTypeEib
00000000000fbf2c T __ZN4x2653DPB19recycleUnreferencedEv
00000000000fc6e8 T __ZN4x2653DPB22decodingRefreshMarkingEi11NalUnitType
00000000000fc828 T __ZN4x2653DPB24applyReferencePictureSetEPNS_3RPSEi
00000000000fbf28 T __ZN4x2653DPBD1Ev
00000000000fbdc4 T __ZN4x2653DPBD2Ev
00000000001debb8 T __ZN4x2653RPS12sortDeltaPOCEv
00000000000f0fa4 T __ZN4x2653SAO10resetStatsEv
00000000000edea8 T __ZN4x2653SAO10startSliceEPNS_5FrameERNS_7EntropyE
00000000000f0ffc T __ZN4x2653SAO12rdoSaoUnitCuEPNS_8SAOParamEiii
00000000000f2a48 T __ZN4x2653SAO13estIterOffsetEixiiRiS1_Rx
00000000000ef574 T __ZN4x2653SAO15calcSaoStatsCTUEii
00000000000f0fac T __ZN4x2653SAO16rdoSaoUnitRowEndEPKNS_8SAOParamEi
00000000000ee08c T __ZN4x2653SAO17applyPixelOffsetsEiii
00000000000edd14 T __ZN4x2653SAO18createFromRootNodeEPS0_
00000000000ef0f8 T __ZN4x2653SAO19generateLumaOffsetsEPNS_11SaoCtuParamEii
00000000000ef294 T __ZN4x2653SAO21generateChromaOffsetsEPPNS_11SaoCtuParamEii
00000000000f17e8 T __ZN4x2653SAO21saoStatsInitialOffsetEii
00000000000f003c T __ZN4x2653SAO25calcSaoStatsCu_BeforeDblkEPNS_5FrameEii
00000000000f1a34 T __ZN4x2653SAO25saoLumaComponentParamDistEPNS_8SAOParamEiRxPxS3_
00000000000f20f4 T __ZN4x2653SAO27saoChromaComponentParamDistEPNS_8SAOParamEiRxPxS3_
00000000000eda14 T __ZN4x2653SAO6createEP10x265_parami
00000000000edd30 T __ZN4x2653SAO7destroyEi
0000000000ac4cb8 S __ZN4x2653SAO9s_eoTableE
00000000000ed994 T __ZN4x2653SAOC1Ev
00000000000ed914 T __ZN4x2653SAOC2Ev
00000000000ed4ec T __ZN4x2653SEI12base64DecodeEPci
00000000000ed46c T __ZN4x2653SEI14writeByteAlignEv
00000000000ed2ec T __ZN4x2653SEI16writeSEImessagesERNS_9BitstreamERKNS_3SPSE11NalUnitTypeRNS_7NALListEi
00000000000ed4e4 T __ZN4x2653SEI7setSizeEj
00000000001c6d38 T __ZN4x2653Yuv11copyFromYuvERKS0_
00000000001c6e04 T __ZN4x2653Yuv13copyPUFromYuvERKS0_jib
00000000001c6c24 T __ZN4x2653Yuv14copyFromPicYuvERKNS_6PicYuvEjj
00000000001c7314 T __ZN4x2653Yuv6addAvgERKNS_8ShortYuvES3_jjjbb
00000000001c69d0 T __ZN4x2653Yuv6createEji
00000000001c7158 T __ZN4x2653Yuv7addClipERKS0_RKNS_8ShortYuvEji
00000000001c6b08 T __ZN4x2653Yuv7destroyEv
00000000001c69c4 T __ZN4x2653YuvC1Ev
00000000001c69b8 T __ZN4x2653YuvC2Ev
0000000000ef2328 D __ZN4x2654doviE
0000000000ac66fc S __ZN4x2654g_t4E
0000000000ac671c S __ZN4x2654g_t8E
00000000001d5f48 T __ZN4x2655Frame15allocEncodeDataEP10x265_paramRKNS_3SPSE
00000000001d59b0 T __ZN4x2655Frame6createEP10x265_paramPf
00000000001d607c T __ZN4x2655Frame6reinitERKNS_3SPSE
00000000001d6098 T __ZN4x2655Frame7destroyEv
00000000001d59ac T __ZN4x2655FrameC1Ev
00000000001d5840 T __ZN4x2655FrameC2Ev
00000000001edb40 T __ZN4x2655Quant11setChromaQPEiNS_8TextTypeEi
00000000001ee9e0 T __ZN4x2655Quant12getSigCtxIncEjjjjbj
00000000001edf68 T __ZN4x2655Quant12transformNxNERKNS_6CUDataEPKhjPKsjPsjNS_8TextTypeEjb
0000000000ef2a78 D __ZN4x2655Quant13rdoQuant_funcE
00000000001ed8f8 T __ZN4x2655Quant13setQPforQuantERKNS_6CUDataEi
00000000001ee344 T __ZN4x2655Quant14ssimDistortionERKNS_6CUDataEPKhjS5_ljNS_8TextTypeEj
00000000001ee79c T __ZN4x2655Quant15invtransformNxNERKNS_6CUDataEPsjPKsjNS_8TextTypeEbbj
00000000001edc30 T __ZN4x2655Quant16signBitHidingHDQEPsPijRKNS_25TUEntropyCodingParametersEj
00000000001ed824 T __ZN4x2655Quant19allocNoiseReductionERK10x265_param
00000000001ed7d0 T __ZN4x2655Quant4initEdRKNS_11ScalingListERNS_7EntropyE
00000000001e6914 T __ZN4x2655Quant8rdoQuantILj2EEEjRKNS_6CUDataEPsNS_8TextTypeEjb
00000000001e83bc T __ZN4x2655Quant8rdoQuantILj3EEEjRKNS_6CUDataEPsNS_8TextTypeEjb
00000000001e9f40 T __ZN4x2655Quant8rdoQuantILj4EEEjRKNS_6CUDataEPsNS_8TextTypeEjb
00000000001ebb4c T __ZN4x2655Quant8rdoQuantILj5EEEjRKNS_6CUDataEPsNS_8TextTypeEjb
00000000001ed7ac T __ZN4x2655QuantC1Ev
00000000001ed788 T __ZN4x2655QuantC2Ev
00000000001ed8c0 T __ZN4x2655QuantD1Ev
00000000001ed888 T __ZN4x2655QuantD2Ev
00000000001de690 T __ZN4x2655Slice13setRefPicListERNS_7PicListE
00000000001dea68 T __ZN4x2655Slice14disableWeightsEv
0000000000ac679c S __ZN4x2655g_t16E
0000000000ac699c S __ZN4x2655g_t32E
00000000001d69b8 T __ZN4x2656CUData10initializeERKNS_13CUDataMemPoolEjRK10x265_parami
00000000001d7ad4 T __ZN4x2656CUData11copyFromPicERKS0_RKNS_6CUGeomEib
00000000001da190 T __ZN4x2656CUData11setPURefIdxEiaii
00000000001d8fb4 T __ZN4x2656CUData11setQPSubCUsEajj
00000000001de40c T __ZN4x2656CUData12calcCTUGeomsEjjjjPNS_6CUGeomE
00000000001d7260 T __ZN4x2656CUData12copyPartFromERKS0_RKNS_6CUGeomEj
00000000001d7578 T __ZN4x2656CUData12setEmptyPartERKNS_6CUGeomEj
00000000001d90ec T __ZN4x2656CUData13setPUInterDirEhjj
00000000001d75cc T __ZN4x2656CUData14initLosslessCUERKS0_RKNS_6CUGeomE
00000000001d6ea4 T __ZN4x2656CUData7initCTUERKNS_5FrameEjijjj
00000000001d9414 T __ZN4x2656CUData7setPUMvEiRKNS_2MVEii
00000000001d70d8 T __ZN4x2656CUData9initSubCUERKS0_RKNS_6CUGeomEi
00000000001d69b0 T __ZN4x2656CUDataC1Ev
00000000001d69a8 T __ZN4x2656CUDataC2Ev
00000000001df8b0 T __ZN4x2656Lowres4initEPNS_6PicYuvEi
00000000001dee1c T __ZN4x2656Lowres6createEP10x265_paramPNS_6PicYuvEj
00000000001df558 T __ZN4x2656Lowres7destroyEv
00000000001c7e70 T __ZN4x2656PicYuv13createOffsetsERKNS_3SPSE
00000000001c7e04 T __ZN4x2656PicYuv13getLumaBufLenEjjj
00000000001c8910 T __ZN4x2656PicYuv15copyFromPictureERK12x265_pictureRK10x265_paramii
00000000001c7bfc T __ZN4x2656PicYuv6createEP10x265_parambPh
00000000001c88e0 T __ZN4x2656PicYuv7destroyEv
00000000001c7bc0 T __ZN4x2656PicYuvC1Ev
00000000001c7b84 T __ZN4x2656PicYuvC2Ev
00000000000c105c T __ZN4x2656Search10checkIntraERNS_4ModeERKNS_6CUGeomENS_8PartSizeE
00000000000c79c0 T __ZN4x2656Search10getBlkBitsENS_8PartSizeEbijPj
00000000000bcc68 T __ZN4x2656Search10initSearchERK10x265_paramRNS_11ScalingListE
00000000000c4658 T __ZN4x2656Search10processPMEERNS0_3PMEERS0_
00000000000c4334 T __ZN4x2656Search11getLowresMVERKNS_6CUDataERKNS_14PredictionUnitEii
00000000000c13dc T __ZN4x2656Search14estIntraPredQTERNS_4ModeERKNS_6CUGeomEPKj
00000000000c3ca0 T __ZN4x2656Search14updateCandListEjyiPjPy
00000000000bd7c4 T __ZN4x2656Search15codeIntraLumaQTERNS_4ModeERKNS_6CUGeomEjjbRNS0_4CostEPKj
00000000000c3f44 T __ZN4x2656Search15mergeEstimationERNS_6CUDataERKNS_6CUGeomERKNS_14PredictionUnitEiRNS0_9MergeDataE
00000000000bf344 T __ZN4x2656Search15offsetSubTUCBFsERNS_6CUDataENS_8TextTypeEjj
00000000000c525c T __ZN4x2656Search15predInterSearchERNS_4ModeERKNS_6CUGeomEbPj
00000000000bd1ec T __ZN4x2656Search15setLambdaFromQPERKNS_6CUDataEii
00000000000c2548 T __ZN4x2656Search17checkIntraInInterERNS_4ModeERKNS_6CUGeomE
00000000000bd57c T __ZN4x2656Search17codeCoeffQTChromaERKNS_6CUDataEjjNS_8TextTypeE
00000000000bf3e8 T __ZN4x2656Search17codeIntraChromaQtERNS_4ModeERKNS_6CUGeomEjjRNS0_4CostE
00000000000be3ec T __ZN4x2656Search18codeIntraLumaTSkipERNS_4ModeERKNS_6CUGeomEjjRNS0_4CostE
00000000000c3944 T __ZN4x2656Search18encodeIntraInInterERNS_4ModeERKNS_6CUGeomE
00000000000c86d8 T __ZN4x2656Search18estimateResidualQTERNS_4ModeERKNS_6CUGeomEjjRNS_8ShortYuvERNS0_4CostEPKji
00000000000bd3dc T __ZN4x2656Search18invalidateContextsEi
00000000000cb180 T __ZN4x2656Search18saveResidualQTDataERNS_6CUDataERNS_8ShortYuvEjj
00000000000cbd14 T __ZN4x2656Search19estimateNullCbfCostEjjjNS_8TextTypeE
00000000000cc720 T __ZN4x2656Search20checkDQPForSplitPredERNS_4ModeERKNS_6CUGeomE
00000000000cc528 T __ZN4x2656Search20codeInterSubdivCbfQTERNS_6CUDataEjjPKj
00000000000bfdd4 T __ZN4x2656Search20codeIntraChromaTSkipERNS_4ModeERKNS_6CUGeomEjjjRNS0_4CostE
00000000000c1d3c T __ZN4x2656Search20estIntraPredChromaQTERNS_4ModeERKNS_6CUGeomE
00000000000bf214 T __ZN4x2656Search20extractIntraResultQTERNS_6CUDataERNS_3YuvEjj
00000000000bd3e0 T __ZN4x2656Search21codeSubdivCbfQTChromaERKNS_6CUDataEjj
00000000000c0918 T __ZN4x2656Search21residualQTIntraChromaERNS_4ModeERKNS_6CUGeomEjj
00000000000c3ce8 T __ZN4x2656Search22getBestIntraModeChromaERNS_4ModeERKNS_6CUGeomE
00000000000c47f4 T __ZN4x2656Search22singleMotionEstimationERS0_RNS_4ModeERKNS_14PredictionUnitEiii
00000000000c7a58 T __ZN4x2656Search24encodeResAndCalcRdSkipCUERNS_4ModeE
00000000000c7dcc T __ZN4x2656Search25encodeResAndCalcRdInterCUERNS_4ModeERKNS_6CUGeomE
00000000000c078c T __ZN4x2656Search26extractIntraResultChromaQTERNS_6CUDataERNS_3YuvEjj
00000000000cb3a4 T __ZN4x2656Search27residualTransformQuantInterERNS_4ModeERKNS_6CUGeomEjjPKj
00000000000bed9c T __ZN4x2656Search27residualTransformQuantIntraERNS_4ModeERKNS_6CUGeomEjjPKj
00000000000c4630 T __ZN4x2656Search3PME12processTasksEi
00000000000cbdc4 T __ZN4x2656Search7splitTUERNS_4ModeERKNS_6CUGeomEjjRNS_8ShortYuvERNS0_4CostEPKji
00000000000c237c T __ZN4x2656Search8checkDQPERNS_4ModeERKNS_6CUGeomE
00000000000c50a0 T __ZN4x2656Search8searchMVERNS_4ModeEiiRNS_2MVEPS3_iS5_
00000000000c4408 T __ZN4x2656Search9selectMVPERKNS_6CUDataERKNS_14PredictionUnitEPKNS_2MVEii
00000000000c4f4c T __ZN4x2656Search9updateMVPENS_2MVERKS1_RjS4_S3_
0000000000ac44a0 S __ZN4x2656Search9zeroShortE
00000000000bcc64 T __ZN4x2656SearchC1Ev
00000000000bc974 T __ZN4x2656SearchC2Ev
00000000000bd1e8 T __ZN4x2656SearchD1Ev
00000000000bd0c8 T __ZN4x2656SearchD2Ev
00000000001c44d0 T __ZN4x2656Thread4stopEv
00000000001c446c T __ZN4x2656Thread5startEv
00000000001c44f0 T __ZN4x2656ThreadC2Ev
00000000001c44ec T __ZN4x2656ThreadD0Ev
00000000001c44e8 T __ZN4x2656ThreadD1Ev
00000000001c44e4 T __ZN4x2656ThreadD2Ev
0000000000ef2080 D __ZN4x2656levelsE
00000000014ac1e0 S __ZN4x2657BitCost10s_bitsizesE
00000000000ccf08 T __ZN4x2657BitCost13CalculateLogsEv
00000000014ac1e8 S __ZN4x2657BitCost13s_fpelMvCostsE
00000000014ac1a0 S __ZN4x2657BitCost14s_costCalcLockE
00000000000cca58 T __ZN4x2657BitCost5setQPEj
00000000000ccfd0 T __ZN4x2657BitCost7destroyEv
00000000014abf10 S __ZN4x2657BitCost7s_costsE
00000000001eea48 T __ZN4x2657Deblock10deblockCTUEPKNS_6CUDataERKNS_6CUGeomEi
0000000000acacaf S __ZN4x2657Deblock11s_betaTableE
00000000001ef740 T __ZN4x2657Deblock14edgeFilterLumaEPKNS_6CUDataEjjiiPKh
00000000001eee0c T __ZN4x2657Deblock15setEdgefilterPUEPKNS_6CUDataEjiPhj
00000000001ef038 T __ZN4x2657Deblock15setEdgefilterTUEPKNS_6CUDataEjjiPh
00000000001f0038 T __ZN4x2657Deblock16edgeFilterChromaEPKNS_6CUDataEjjiiPKh
00000000001ef1d0 T __ZN4x2657Deblock19getBoundaryStrengthEPKNS_6CUDataEijPKh
00000000001ef170 T __ZN4x2657Deblock21setEdgefilterMultipleEjiihPhj
00000000001eeac8 T __ZN4x2657Deblock9deblockCUEPKNS_6CUDataERKNS_6CUGeomEiPh
0000000000acace3 S __ZN4x2657Deblock9s_tcTableE
0000000000109da4 T __ZN4x2657Encoder10computeSSDEPhS1_ljjP10x265_param
0000000000114bbc T __ZN4x2657Encoder10fetchStatsEP10x265_statsm
0000000000117298 T __ZN4x2657Encoder10getCUIndexEPNS_10cuLocationEPjii
000000000011739c T __ZN4x2657Encoder10getPuShapeEPNS_13puOrientationEii
0000000000108488 T __ZN4x2657Encoder10initRefIdxEv
000000000010a678 T __ZN4x2657Encoder11ComputePSNREP12x265_pictureS2_P10x265_param
0000000000113e1c T __ZN4x2657Encoder11copyCtuInfoEPP15x265_ctu_info_ti
000000000010aaac T __ZN4x2657Encoder11copyPictureEP12x265_picturePKS1_
00000000001144e0 T __ZN4x2657Encoder11statsStringERNS_8EncStatsEPc
0000000000114644 T __ZN4x2657Encoder12printSummaryEv
0000000000114e98 T __ZN4x2657Encoder12updateRefIdxEv
0000000000114e38 T __ZN4x2657Encoder13analyseRefIdxEPi
0000000000115364 T __ZN4x2657Encoder13configureZoneEP10x265_paramS2_
000000000010b0f8 T __ZN4x2657Encoder13findSceneCutsEP12x265_pictureRbdd
0000000000109878 T __ZN4x2657Encoder13updateVbvPlanEPNS_11RateControlE
0000000000108688 T __ZN4x2657Encoder15getRefFrameListEPPNS_6PicYuvES3_iiPiS4_
0000000000113dd0 T __ZN4x2657Encoder15isReconfigureRcEP10x265_paramS2_
0000000000109bc0 T __ZN4x2657Encoder15readUserSeiFileER16x265_sei_payloadi
0000000000108e74 T __ZN4x2657Encoder15setAnalysisDataEP18x265_analysis_dataij
00000000001128f8 T __ZN4x2657Encoder16finishFrameStatsEPNS_5FrameEPNS_12FrameEncoderEP16x265_frame_statsi
0000000000114f74 T __ZN4x2657Encoder16getStreamHeadersERNS_7NALListERNS_7EntropyERNS_9BitstreamE
000000000010fe90 T __ZN4x2657Encoder16readAnalysisFileEP18x265_analysis_dataiPK12x265_picturei
000000000010dee4 T __ZN4x2657Encoder16readAnalysisFileEP18x265_analysis_dataiPK12x265_pictureiNS_10cuLocationE
000000000011363c T __ZN4x2657Encoder16readAnalysisFileEP18x265_analysis_dataii
0000000000113b74 T __ZN4x2657Encoder16reconfigureParamEP10x265_paramS2_
000000000010ab84 T __ZN4x2657Encoder17computeHistogramsEP12x265_picture
00000000001116d0 T __ZN4x2657Encoder17writeAnalysisFileEP18x265_analysis_dataRNS_9FrameDataE
0000000000117a3c T __ZN4x2657Encoder18computeSPSRPSIndexEv
0000000000117430 T __ZN4x2657Encoder18copyDistortionDataEP18x265_analysis_dataRNS_9FrameDataE
0000000000109924 T __ZN4x2657Encoder19calcRefreshIntervalEPNS_5FrameE
000000000010aee4 T __ZN4x2657Encoder19computeHistogramSADEPdS1_i
00000000001099dc T __ZN4x2657Encoder19copyUserSEIMessagesEPNS_5FrameEPK12x265_picture
000000000010d160 T __ZN4x2657Encoder20validateAnalysisDataEP22x265_analysis_validatei
00000000001174b4 T __ZN4x2657Encoder22printReconfigureParamsEv
0000000000116fa8 T __ZN4x2657Encoder23computeDistortionOffsetEP18x265_analysis_data
0000000000112414 T __ZN4x2657Encoder23writeAnalysisFileRefineEP18x265_analysis_dataRNS_9FrameDataE
0000000000108908 T __ZN4x2657Encoder25setAnalysisDataAfterZScanEP18x265_analysis_dataPNS_5FrameE
00000000001154bc T __ZN4x2657Encoder26configureDolbyVisionParamsEP10x265_param
00000000001085f4 T __ZN4x2657Encoder27copySlicetypePocAndSceneCutEPiS1_S1_
0000000000106afc T __ZN4x2657Encoder6createEv
000000000010b1b4 T __ZN4x2657Encoder6encodeEPK12x265_picturePS1_
0000000000109380 T __ZN4x2657Encoder7destroyEv
00000000001082f0 T __ZN4x2657Encoder7initPPSEPNS_3PPSE
000000000010802c T __ZN4x2657Encoder7initSPSEPNS_3SPSE
0000000000107ffc T __ZN4x2657Encoder7initVPSEPNS_3VPSE
00000000001084d8 T __ZN4x2657Encoder8stopJobsEv
0000000000115574 T __ZN4x2657Encoder9configureEP10x265_param
0000000000106af8 T __ZN4x2657EncoderC1Ev
000000000010694c T __ZN4x2657EncoderC2Ev
00000000000f87c8 T __ZN4x2657Entropy10codePUWiseERKNS_6CUDataEj
00000000000f698c T __ZN4x2657Entropy11codeDeltaQPERKNS_6CUDataEj
00000000000f9718 T __ZN4x2657Entropy11encodeBinEPEj
00000000000f6aec T __ZN4x2657Entropy12codeCoeffNxNERKNS_6CUDataEPKsjjNS_8TextTypeE
00000000000f8d1c T __ZN4x2657Entropy12codeInterDirERKNS_6CUDataEj
00000000000f571c T __ZN4x2657Entropy12codePartSizeERKNS_6CUDataEjj
00000000000f58e8 T __ZN4x2657Entropy12codePredInfoERKNS_6CUDataEj
00000000000f5d88 T __ZN4x2657Entropy12encodeBinTrmEj
00000000000f98a4 T __ZN4x2657Entropy12encodeBinsEPEji
00000000000fa22c T __ZN4x2657Entropy12resetEntropyERKNS_5SliceE
00000000000f9014 T __ZN4x2657Entropy13codeRefFrmIdxERKNS_6CUDataEji
00000000000f90c0 T __ZN4x2657Entropy13codeSaoOffsetERKNS_11SaoCtuParamEi
00000000000f54c4 T __ZN4x2657Entropy14codeMergeIndexERKNS_6CUDataEj
00000000000f9834 T __ZN4x2657Entropy14codeSaoMaxUvlcEjj
00000000000f3500 T __ZN4x2657Entropy15codeProfileTierERKNS_16ProfileTierLevelEi
00000000000f6890 T __ZN4x2657Entropy15codeQtCbfChromaERKNS_6CUDataEjNS_8TextTypeEjb
00000000000f8dac T __ZN4x2657Entropy15codeRefFrmIdxPUERKNS_6CUDataEji
00000000000f9e18 T __ZN4x2657Entropy15codeSaoOffsetBOEPiii
00000000000f9aac T __ZN4x2657Entropy15codeSaoOffsetEOEPiii
00000000000f3bd0 T __ZN4x2657Entropy15codeScalingListERKNS_11ScalingListE
00000000000f468c T __ZN4x2657Entropy15codeScalingListERKNS_11ScalingListEjj
00000000000f47ec T __ZN4x2657Entropy15codeSliceHeaderERKNS_5SliceERNS_9FrameDataEjji
00000000000f5f2c T __ZN4x2657Entropy15encodeTransformERKNS_6CUDataEjjjRbPKj
00000000000fb0f0 T __ZN4x2657Entropy15writeEpExGolombEjj
00000000000fbbb4 T __ZN4x2657Entropy16copyContextsFromERKS0_
00000000000f451c T __ZN4x2657Entropy17codeHrdParametersERKNS_7HRDInfoEi
00000000000f85ec T __ZN4x2657Entropy18codeIntraDirChromaERKNS_6CUDataEjPj
00000000000f82c8 T __ZN4x2657Entropy19codeIntraDirLumaAngERKNS_6CUDataEjb
00000000000f4cac T __ZN4x2657Entropy19codePredWeightTableERKNS_5SliceE
00000000000f8020 T __ZN4x2657Entropy19encodeTransformLumaERKNS_6CUDataEjjjRbPKj
00000000000fb058 T __ZN4x2657Entropy19writeUnaryMaxSymbolEjPhij
00000000000fb200 T __ZN4x2657Entropy20loadIntraDirModeLumaERKS0_
00000000000f3d98 T __ZN4x2657Entropy22codeShortTermRefPicSetERKNS_3RPSEi
00000000000fb154 T __ZN4x2657Entropy23writeCoefRemainExGolombEjj
00000000000f4fa4 T __ZN4x2657Entropy29codeSliceHeaderWPPEntryPointsEPKjjj
00000000000fb040 T __ZN4x2657Entropy5startEv
00000000000fbbe8 T __ZN4x2657Entropy6finishEv
00000000000f47c0 T __ZN4x2657Entropy7codeAUDERKNS_5SliceE
00000000000f8e68 T __ZN4x2657Entropy7codeMvdERKNS_6CUDataEji
00000000000f41f4 T __ZN4x2657Entropy7codePPSERKNS_3PPSEbi
00000000000f3818 T __ZN4x2657Entropy7codeSPSERKNS_3SPSERKNS_11ScalingListERKNS_16ProfileTierLevelE
00000000000f337c T __ZN4x2657Entropy7codeVPSERKNS_3VPSE
00000000000f3ebc T __ZN4x2657Entropy7codeVUIERKNS_3VUIEibb
00000000000fb214 T __ZN4x2657Entropy8copyFromERKS0_
00000000000f505c T __ZN4x2657Entropy8encodeCUERKNS_6CUDataERKNS_6CUGeomEjjRb
00000000000f5548 T __ZN4x2657Entropy8finishCUERKNS_6CUDataEjjb
00000000000fbcf4 T __ZN4x2657Entropy8writeOutEv
00000000000f5a7c T __ZN4x2657Entropy9codeCoeffERKNS_6CUDataEjRbPKj
00000000000fb260 T __ZN4x2657Entropy9copyStateERKS0_
00000000000f958c T __ZN4x2657Entropy9encodeBinEjRh
00000000000f5024 T __ZN4x2657Entropy9encodeCTUERKNS_6CUDataERKNS_6CUGeomE
00000000000f5ef0 T __ZN4x2657Entropy9resetBitsEv
00000000000f336c T __ZN4x2657EntropyC1Ev
00000000000f335c T __ZN4x2657EntropyC2Ev
00000000001c57f4 T __ZN4x2657MD5InitEPNS_10MD5ContextE
00000000000ecce0 T __ZN4x2657NALList12takeContentsERS0_
00000000000ed0ec T __ZN4x2657NALList19serializeSubstreamsEPjjPKNS_9BitstreamE
00000000000ecd44 T __ZN4x2657NALList9serializeE11NalUnitTypeRKNS_9BitstreamE
00000000000eccc4 T __ZN4x2657NALListC1Ev
00000000000ecca8 T __ZN4x2657NALListC2Ev
00000000001dfd60 T __ZN4x2657PicList11getCurFrameEv
00000000001dfcf8 T __ZN4x2657PicList6getPOCEi
00000000001dfd68 T __ZN4x2657PicList6removeERNS_5FrameE
00000000001dfd18 T __ZN4x2657PicList7popBackEv
00000000001dfcb0 T __ZN4x2657PicList8popFrontEv
00000000001dfc7c T __ZN4x2657PicList8pushBackERNS_5FrameE
00000000001dfc44 T __ZN4x2657PicList9pushFrontERNS_5FrameE
00000000001dff38 T __ZN4x2657Predict12allocBuffersEi
00000000001e1e58 T __ZN4x2657Predict14initAdiPatternERKNS_6CUDataERKNS_6CUGeomEjRKNS0_14IntraNeighborsEi
00000000001e1d8c T __ZN4x2657Predict16predIntraLumaAngEjPhlj
00000000001e27ec T __ZN4x2657Predict18initIntraNeighborsERKNS_6CUDataEjjbPNS0_14IntraNeighborsE
00000000001dff9c T __ZN4x2657Predict18motionCompensationERKNS_6CUDataERKNS_14PredictionUnitERNS_3YuvEbb
00000000001e1de8 T __ZN4x2657Predict18predIntraChromaAngEjPhlj
00000000001e21b8 T __ZN4x2657Predict20fillReferenceSamplesEPKhlRKNS0_14IntraNeighborsEPh
00000000001e2740 T __ZN4x2657Predict20initAdiPatternChromaERKNS_6CUDataERKNS_6CUGeomEjRKNS0_14IntraNeighborsEj
00000000001dfeb4 T __ZN4x2657PredictC1Ev
00000000001dfe88 T __ZN4x2657PredictC2Ev
00000000001dff0c T __ZN4x2657PredictD1Ev
00000000001dfee0 T __ZN4x2657PredictD2Ev
00000000000bc128 T __ZN4x2658Analysis10aqQPOffsetERKNS_6CUDataERKNS_6CUGeomE
00000000000bbc20 T __ZN4x2658Analysis10classifyCUERKNS_6CUDataERKNS_6CUGeomERKNS_4ModeERNS0_12TrainingDataE
00000000000bc210 T __ZN4x2658Analysis10normFactorEPKhjRNS_6CUDataEiNS_8TextTypeE
00000000000b3c28 T __ZN4x2658Analysis10qprdRefineERKNS_6CUDataERKNS_6CUGeomEii
00000000000af4d0 T __ZN4x2658Analysis11compressCTUERNS_6CUDataERNS_5FrameERKNS_6CUGeomERKNS_7EntropyE
00000000000b7814 T __ZN4x2658Analysis11loadTUDepthENS_6CUGeomENS_6CUDataE
00000000000b7954 T __ZN4x2658Analysis11tryLosslessERKNS_6CUGeomE
00000000000b8d00 T __ZN4x2658Analysis12processPmodeERNS0_5PMODEERS0_
00000000000b3454 T __ZN4x2658Analysis13encodeResidueERKNS_6CUDataERKNS_6CUGeomE
00000000000bc19c T __ZN4x2658Analysis14cuTreeQPOffsetERKNS_6CUDataERKNS_6CUGeomE
00000000000b96fc T __ZN4x2658Analysis15checkBidir2Nx2NERNS_4ModeES2_RKNS_6CUGeomE
00000000000b04a0 T __ZN4x2658Analysis15compressIntraCUERKNS_6CUDataERKNS_6CUGeomEi
00000000000ba2cc T __ZN4x2658Analysis15topSkipMinDepthERKNS_6CUDataERKNS_6CUGeomE
00000000000b8b68 T __ZN4x2658Analysis16addSplitFlagCostERNS_4ModeEj
00000000000b9340 T __ZN4x2658Analysis16checkInter_rd0_4ERNS_4ModeERKNS_6CUGeomENS_8PartSizeEPj
00000000000b9ffc T __ZN4x2658Analysis16checkInter_rd5_6ERNS_4ModeERKNS_6CUGeomENS_8PartSizeEPj
00000000000bb348 T __ZN4x2658Analysis17complexityCheckCUERKNS_4ModeE
00000000000bc030 T __ZN4x2658Analysis19calculateCUVarianceERKNS_6CUDataERKNS_6CUGeomE
00000000000b01c0 T __ZN4x2658Analysis19calculateNormFactorERNS_6CUDataEi
00000000000b75ac T __ZN4x2658Analysis19collectPUStatisticsERKNS_6CUDataERKNS_6CUGeomE
00000000000bb0b0 T __ZN4x2658Analysis19recursionDepthCheckERKNS_6CUDataERKNS_6CUGeomERKNS_4ModeE
00000000000afe68 T __ZN4x2658Analysis20calculateQpforCuSizeERKNS_6CUDataERKNS_6CUGeomEid
00000000000b3e88 T __ZN4x2658Analysis20compressInterCU_distERKNS_6CUDataERKNS_6CUGeomEi
00000000000ba434 T __ZN4x2658Analysis21checkMerge2Nx2N_rd0_4ERNS_4ModeES2_RKNS_6CUGeomE
00000000000bab0c T __ZN4x2658Analysis21checkMerge2Nx2N_rd5_6ERNS_4ModeES2_RKNS_6CUGeomE
00000000000b0d54 T __ZN4x2658Analysis21compressInterCU_rd0_4ERKNS_6CUDataERKNS_6CUGeomEi
00000000000b4f88 T __ZN4x2658Analysis21compressInterCU_rd5_6ERKNS_6CUDataERKNS_6CUGeomEi
00000000000bb1f8 T __ZN4x2658Analysis23findSameContentRefCountERKNS_6CUDataERKNS_6CUGeomE
00000000000b8cd8 T __ZN4x2658Analysis5PMODE12processTasksEi
00000000000aef3c T __ZN4x2658Analysis6createEPNS_15ThreadLocalDataE
00000000000af268 T __ZN4x2658Analysis7destroyEv
00000000000bbf30 T __ZN4x2658Analysis7trainCUERKNS_6CUDataERKNS_6CUGeomERKNS_4ModeERNS0_12TrainingDataE
00000000000b7a74 T __ZN4x2658Analysis8recodeCUERKNS_6CUDataERKNS_6CUGeomEii
00000000000aeebc T __ZN4x2658AnalysisC1Ev
00000000000aee3c T __ZN4x2658AnalysisC2Ev
00000000001144d0 T __ZN4x2658EncStats5addQPEd
00000000001144a4 T __ZN4x2658EncStats7addBitsEy
0000000000114484 T __ZN4x2658EncStats7addPsnrEddd
00000000001144c0 T __ZN4x2658EncStats7addSsimEd
00000000001c62ac T __ZN4x2658MD5FinalEPNS_10MD5ContextEPh
00000000001c7798 T __ZN4x2658ShortYuv5clearEv
00000000001c76a4 T __ZN4x2658ShortYuv6createEji
00000000001c7790 T __ZN4x2658ShortYuv7destroyEv
00000000001c77ec T __ZN4x2658ShortYuv8subtractERKNS_3YuvES3_ji
00000000001c7698 T __ZN4x2658ShortYuvC1Ev
00000000001c768c T __ZN4x2658ShortYuvC2Ev
00000000000fa1c8 T __ZN4x2658sbacInitEii
00000000001c67cc T __ZN4x2659Bitstream13writeAlignOneEv
00000000001c67f0 T __ZN4x2659Bitstream14writeAlignZeroEv
00000000001c6898 T __ZN4x2659Bitstream18writeByteAlignmentEv
00000000001c6498 T __ZN4x2659Bitstream5writeEjj
00000000001c63f8 T __ZN4x2659Bitstream9push_backEh
00000000001c672c T __ZN4x2659Bitstream9writeByteEj
00000000001c63a8 T __ZN4x2659BitstreamC1Ev
00000000001c6358 T __ZN4x2659BitstreamC2Ev
00000000001d63b8 T __ZN4x2659FrameData6createERK10x265_paramRKNS_3SPSEi
00000000001d677c T __ZN4x2659FrameData6reinitERKNS_3SPSE
00000000001d682c T __ZN4x2659FrameData7destroyEv
00000000001d63b0 T __ZN4x2659FrameDataC1Ev
00000000001d63a8 T __ZN4x2659FrameDataC2Ev
00000000000d9168 T __ZN4x2659Lookahead10addPictureERNS_5FrameE
00000000000d8fcc T __ZN4x2659Lookahead10addPictureERNS_5FrameEi
00000000000deeb4 T __ZN4x2659Lookahead12cuTreeFinishEPNS_6LowresEdi
00000000000dcf94 T __ZN4x2659Lookahead12vbvFrameCostEPPNS_6LowresEiii
00000000000dc5a8 T __ZN4x2659Lookahead12vbvLookaheadEPPNS_6LowresEii
00000000000dde74 T __ZN4x2659Lookahead13slicetypePathEPPNS_6LowresEiPA251_c
00000000000d92b4 T __ZN4x2659Lookahead15slicetypeDecideEv
00000000000ddbf4 T __ZN4x2659Lookahead16scenecutInternalEPPNS_6LowresEiib
00000000000db258 T __ZN4x2659Lookahead16slicetypeAnalyseEPPNS_6LowresEb
00000000000da280 T __ZN4x2659Lookahead17getDecidedPictureEv
00000000000d91cc T __ZN4x2659Lookahead17setLookaheadQueueEv
00000000000de124 T __ZN4x2659Lookahead17slicetypePathCostEPPNS_6LowresEPcx
00000000000d90e4 T __ZN4x2659Lookahead19checkLookaheadQueueERi
00000000000de740 T __ZN4x2659Lookahead19estimateCUPropagateEPPNS_6LowresEdiiii
00000000000dad48 T __ZN4x2659Lookahead20frameCostRecalculateEPPNS_6LowresEiii
00000000000df1b8 T __ZN4x2659Lookahead21computeCUTreeQpOffsetEPNS_6LowresEdi
00000000000da394 T __ZN4x2659Lookahead23getEstimatedPictureCostEPNS_5FrameE
00000000000de42c T __ZN4x2659Lookahead28calcMotionAdaptiveQuantFrameEPPNS_6LowresEiii
00000000000d91bc T __ZN4x2659Lookahead5flushEv
00000000000d8bc8 T __ZN4x2659Lookahead6createEv
00000000000dd124 T __ZN4x2659Lookahead6cuTreeEPPNS_6LowresEib
00000000000d8e10 T __ZN4x2659Lookahead7destroyEv
00000000000d91e8 T __ZN4x2659Lookahead7findJobEi
00000000000de018 T __ZN4x2659Lookahead8aqMotionEPPNS_6LowresEb
00000000000dd83c T __ZN4x2659Lookahead8scenecutEPPNS_6LowresEiibi
00000000000d8d30 T __ZN4x2659Lookahead8stopJobsEv
00000000000d8bc4 T __ZN4x2659LookaheadC1EP10x265_paramPNS_10ThreadPoolE
00000000000d88a8 T __ZN4x2659LookaheadC2EP10x265_paramPNS_10ThreadPoolE
00000000001c5808 T __ZN4x2659MD5UpdateEPNS_10MD5ContextEPhj
00000000001c56f0 T __ZN4x2659WaveFront10dequeueRowEi
00000000001c568c T __ZN4x2659WaveFront10enqueueRowEi
00000000001c56dc T __ZN4x2659WaveFront13enableAllRowsEv
00000000001c5654 T __ZN4x2659WaveFront19clearEnabledRowMaskEv
00000000001c5554 T __ZN4x2659WaveFront4initEi
00000000001c5724 T __ZN4x2659WaveFront7findJobEi
00000000001c56b4 T __ZN4x2659WaveFront9enableRowEi
00000000001c5650 T __ZN4x2659WaveFrontD0Ev
00000000001c564c T __ZN4x2659WaveFrontD1Ev
00000000001c5600 T __ZN4x2659WaveFrontD2Ev
0000000000ac9d18 S __ZN4x2659cpu_namesE
00000000001c91d4 T __ZN4x2659crcFinishERjPh
0000000000ac7250 S __ZN4x2659g_scan4x4E
00000000001c90b4 T __ZN4x2659updateCRCEPKhRjjjl
00000000001cb1a4 T __ZN4x2659x265_atofEPKcRb
00000000001cb0c0 T __ZN4x2659x265_atoiEPKcRb
00000000001c98ac T __ZN4x2659x265_freeEPv
00000000000e9f1c T __ZNK4x26511FrameFilter14ParallelFilter13processPostCuEi
00000000001e3280 T __ZNK4x26511ScalingList13checkPredModeEii
00000000001e3700 T __ZNK4x26511ScalingList23checkDefaultScalingListEv
00000000001e369c T __ZNK4x26511ScalingList28getScalingListDefaultAddressEii
00000000000ede2c T __ZNK4x2653SAO13allocSaoParamEPNS_8SAOParamE
00000000001c6b10 T __ZNK4x2653Yuv12copyToPicYuvERNS_6PicYuvEjj
00000000001c703c T __ZNK4x2653Yuv13copyPartToYuvERS0_j
00000000001c6f24 T __ZNK4x2653Yuv13copyToPartYuvERS0_j
00000000001c7540 T __ZNK4x2653Yuv18copyPartToPartLumaERS0_jj
00000000001c759c T __ZNK4x2653Yuv20copyPartToPartChromaERS0_jj
00000000001deca0 T __ZNK4x2655Slice14realEndAddressEj
00000000001db2d8 T __ZNK4x2656CUData10getMvFieldEPKS0_jiRNS_7MVFieldE
00000000001d8040 T __ZNK4x2656CUData10getPUAboveERjj
00000000001dd648 T __ZNK4x2656CUData12getDirectPMVERNS_2MVEPNS_16InterNeighbourMVEjj
00000000001d8e9c T __ZNK4x2656CUData14getCtxSkipFlagEj
00000000001dd6cc T __ZNK4x2656CUData14getIndirectPMVERNS_2MVEPNS_16InterNeighbourMVEjj
00000000001d8978 T __ZNK4x2656CUData14getLastCodedQPEj
00000000001dd8dc T __ZNK4x2656CUData14getNeighbourMVEjjPNS_16InterNeighbourMVE
00000000001d80c4 T __ZNK4x2656CUData14getPUAboveLeftERjj
00000000001d82d0 T __ZNK4x2656CUData14getPUBelowLeftERjj
00000000001d8600 T __ZNK4x2656CUData14getQpMinCuLeftERjj
00000000001db71c T __ZNK4x2656CUData14hasEqualMotionEjRKS0_j
00000000001dc8fc T __ZNK4x2656CUData15deriveCenterIdxEj
00000000001de14c T __ZNK4x2656CUData15getCollocatedMVEiiPNS_16InterNeighbourMVE
00000000001d8cc0 T __ZNK4x2656CUData15getCtxSplitFlagEjj
00000000001d81a4 T __ZNK4x2656CUData15getPUAboveRightERjj
00000000001d866c T __ZNK4x2656CUData15getQpMinCuAboveERjj
00000000001dd800 T __ZNK4x2656CUData16scaleMvByPOCDistERKNS_2MVEiiii
00000000001d83cc T __ZNK4x2656CUData17getPUBelowLeftAdiERjjj
00000000001d84cc T __ZNK4x2656CUData18getPUAboveRightAdiERjjj
00000000001db4d0 T __ZNK4x2656CUData19deriveLeftBottomIdxEj
00000000001d8a78 T __ZNK4x2656CUData19getAllowedChromaDirEjPj
00000000001ddd68 T __ZNK4x2656CUData19getInterNeighbourMVEPNS_16InterNeighbourMVEjNS_7MVP_DIRE
00000000001d8a3c T __ZNK4x2656CUData19getLastValidPartIdxEi
00000000001db270 T __ZNK4x2656CUData19getPartIndexAndSizeEjRjRiS2_
00000000001db5e8 T __ZNK4x2656CUData20deriveRightBottomIdxEj
00000000001db310 T __ZNK4x2656CUData21deriveLeftRightTopIdxEjRjS1_
00000000001d8e34 T __ZNK4x2656CUData22getInterTUQtDepthRangeEPjj
00000000001d8dd8 T __ZNK4x2656CUData22getIntraTUQtDepthRangeEPjj
00000000001db7b8 T __ZNK4x2656CUData23getInterMergeCandidatesEjjPA2_NS_7MVFieldEPh
00000000001d8ad4 T __ZNK4x2656CUData24getIntraDirLumaPredictorEjPj
00000000001de2e0 T __ZNK4x2656CUData28getTUEntropyCodingParametersERNS_25TUEntropyCodingParametersEjjb
00000000001de288 T __ZNK4x2656CUData6clipMvERNS_2MVE
00000000001dc97c T __ZNK4x2656CUData6getPMVEPNS_16InterNeighbourMVEjjPNS_2MVES4_
00000000001d86d4 T __ZNK4x2656CUData8getRefQPEj
00000000001d775c T __ZNK4x2656CUData9copyToPicEj
00000000001dc72c T __ZNK4x2656CUData9getColMVPERNS_2MVERiiii
00000000001d7fb8 T __ZNK4x2656CUData9getPULeftERjj
00000000001d7dc0 T __ZNK4x2656CUData9updatePicEji
00000000000c4fdc T __ZNK4x2656Search12checkBestMVPEPKNS_2MVERS2_RiRjS6_
00000000000c4d78 T __ZNK4x2656Search14setSearchRangeERKNS_6CUDataERKNS_2MVEiRS4_S7_
00000000000c38bc T __ZNK4x2656Search19getIntraRemModeBitsERNS_6CUDataEjPjRy
00000000000f5bc4 T __ZNK4x2657Entropy13bitsInterModeERKNS_6CUDataEjj
00000000000fb530 T __ZNK4x2657Entropy20estSignificantMapBitERNS_11EstBitsSbacEjb
00000000000fb850 T __ZNK4x2657Entropy29estSignificantCoefficientsBitERNS_11EstBitsSbacEb
00000000000fb4d8 T __ZNK4x2657Entropy30estSignificantCoeffGroupMapBitERNS_11EstBitsSbacEb
00000000000fb27c T __ZNK4x2657Entropy6estBitERNS_11EstBitsSbacEjb
00000000000fb3ec T __ZNK4x2657Entropy9estCBFBitERNS_11EstBitsSbacE
00000000001e130c T __ZNK4x2657Predict11addWeightBiERKNS_14PredictionUnitERNS_3YuvERKNS_8ShortYuvES8_PKNS0_12WeightValuesESB_bb
00000000001e0c70 T __ZNK4x2657Predict12addWeightUniERKNS_14PredictionUnitERNS_3YuvERKNS_8ShortYuvEPKNS0_12WeightValuesEbb
00000000001e0e10 T __ZNK4x2657Predict18predInterLumaPixelERKNS_14PredictionUnitERNS_3YuvERKNS_6PicYuvERKNS_2MVE
00000000001e05d4 T __ZNK4x2657Predict18predInterLumaShortERKNS_14PredictionUnitERNS_8ShortYuvERKNS_6PicYuvERKNS_2MVE
00000000001e0f14 T __ZNK4x2657Predict20predInterChromaPixelERKNS_14PredictionUnitERNS_3YuvERKNS_6PicYuvERKNS_2MVE
00000000001e0838 T __ZNK4x2657Predict20predInterChromaShortERKNS_14PredictionUnitERNS_8ShortYuvERKNS_6PicYuvERKNS_2MVE
00000000001c7940 T __ZNK4x2658ShortYuv18copyPartToPartLumaERNS_3YuvEjj
00000000001c78e4 T __ZNK4x2658ShortYuv18copyPartToPartLumaERS0_jj
00000000001c7a90 T __ZNK4x2658ShortYuv20copyPartToPartChromaERNS_3YuvEjj
00000000001c799c T __ZNK4x2658ShortYuv20copyPartToPartChromaERS0_jj
0000000000e073a0 S __ZTIN4x26512FrameEncoder14WeightAnalysisE
0000000000e07350 S __ZTIN4x26512FrameEncoderE
0000000000e078c0 S __ZTIN4x26512WorkerThreadE
0000000000e072a0 S __ZTIN4x26517CostEstimateGroupE
0000000000e07270 S __ZTIN4x26517PreLookaheadGroupE
0000000000e07218 S __ZTIN4x2656Search3PMEE
0000000000e07888 S __ZTIN4x2656ThreadE
0000000000e071d0 S __ZTIN4x2658Analysis5PMODEE
0000000000e07970 S __ZTIN4x2659BitstreamE
0000000000e072c8 S __ZTIN4x2659LookaheadE
0000000000e07908 S __ZTIN4x2659WaveFrontE
0000000000ac4b0c S __ZTSN4x26512FrameEncoder14WeightAnalysisE
0000000000ac4ae5 S __ZTSN4x26512FrameEncoderE
0000000000ac9d48 S __ZTSN4x26512WorkerThreadE
0000000000ac4a4c S __ZTSN4x26517CostEstimateGroupE
0000000000ac4a30 S __ZTSN4x26517PreLookaheadGroupE
0000000000ac45b0 S __ZTSN4x2656Search3PMEE
0000000000ac9d30 S __ZTSN4x2656ThreadE
0000000000ac4384 S __ZTSN4x2658Analysis5PMODEE
0000000000ac9d84 S __ZTSN4x2659BitstreamE
0000000000ac4a67 S __ZTSN4x2659LookaheadE
0000000000ac9d5e S __ZTSN4x2659WaveFrontE
0000000000e07388 S __ZTVN4x26512FrameEncoder14WeightAnalysisE
0000000000e072e0 S __ZTVN4x26512FrameEncoderE
0000000000e07898 S __ZTVN4x26512WorkerThreadE
0000000000e07288 S __ZTVN4x26517CostEstimateGroupE
0000000000e07258 S __ZTVN4x26517PreLookaheadGroupE
0000000000e07200 S __ZTVN4x2656Search3PMEE
0000000000e07860 S __ZTVN4x2656ThreadE
0000000000e071a8 S __ZTVN4x2658Analysis5PMODEE
0000000000e07920 S __ZTVN4x2659BitstreamE
0000000000e07230 S __ZTVN4x2659LookaheadE
0000000000e078d8 S __ZTVN4x2659WaveFrontE
00000000000e537c T __ZThn72_N4x26512FrameEncoder10threadMainEv
0000000000f3c5d8 S _abort_on_flags
00000000000accd0 T _addExecution
00000000000999e8 T _add_input_streams
0000000000089010 T _assert_avoptions
000000000009aa14 T _assert_file_overwrite
0000000000f3c440 S _audio_drift_threshold
0000000000f3c4a0 S _audio_sync_method
0000000000f3c488 S _audio_volume
0000000000f3c6b0 S _auto_conversion_filters
0000000000262e40 T _av_abuffersink_params_alloc
000000000039eed8 T _av_ac3_parse_header
000000000083c238 T _av_add_index_entry
0000000000206bb0 T _av_add_q
00000000001ffa18 T _av_add_stable
00000000001f0684 T _av_adler32_update
00000000003b26b0 T _av_adts_header_parse
00000000001f0704 T _av_aes_alloc
00000000001f070c T _av_aes_crypt
00000000001f0f24 T _av_aes_ctr_alloc
00000000001f1078 T _av_aes_ctr_crypt
00000000001f1008 T _av_aes_ctr_free
00000000001f0f4c T _av_aes_ctr_get_iv
00000000001f1030 T _av_aes_ctr_increment_iv
00000000001f0fbc T _av_aes_ctr_init
00000000001f0f3c T _av_aes_ctr_set_full_iv
00000000001f0f2c T _av_aes_ctr_set_iv
00000000001f0f54 T _av_aes_ctr_set_random_iv
00000000001f0718 T _av_aes_init
0000000000acad40 S _av_aes_size
000000000083a50c T _av_append_packet
00000000001f3bf8 T _av_append_path_component
0000000000842568 T _av_apply_bitstream_filters
00000000001f372c T _av_asprintf
0000000000215ee4 T _av_assert0_fpu
00000000001f11a0 T _av_audio_fifo_alloc
00000000001f1544 T _av_audio_fifo_drain
00000000001f1138 T _av_audio_fifo_free
00000000001f13ac T _av_audio_fifo_peek
00000000001f1428 T _av_audio_fifo_peek_at
00000000001f14c8 T _av_audio_fifo_read
00000000001f1274 T _av_audio_fifo_realloc
00000000001f15c8 T _av_audio_fifo_reset
00000000001f13a4 T _av_audio_fifo_size
00000000001f1398 T _av_audio_fifo_space
00000000001f12ec T _av_audio_fifo_write
00000000001f4110 T _av_base64_decode
00000000001f42c4 T _av_base64_encode
00000000001f3b74 T _av_basename
00000000003daab0 T _av_bitstream_filter_close
00000000003daae4 T _av_bitstream_filter_filter
00000000003daa4c T _av_bitstream_filter_init
00000000003daa14 T _av_bitstream_filter_next
00000000001fe2b0 T _av_bmg_get
00000000001f4684 T _av_bprint_append_data
00000000001f5630 T _av_bprint_channel_layout
00000000001f4624 T _av_bprint_chars
00000000001f48fc T _av_bprint_clear
00000000001f49c0 T _av_bprint_escape
00000000001f4914 T _av_bprint_finalize
00000000001f4888 T _av_bprint_get_buffer
00000000001f43c4 T _av_bprint_init
00000000001f44c8 T _av_bprint_init_for_buffer
00000000001f46e4 T _av_bprint_strftime
00000000001f44dc T _av_bprintf
00000000003dcbb8 T _av_bsf_alloc
00000000003dcdb8 T _av_bsf_flush
00000000003dcb20 T _av_bsf_free
00000000003dada4 T _av_bsf_get_by_name
00000000003dcbac T _av_bsf_get_class
00000000003dd4c8 T _av_bsf_get_null_filter
00000000003dcc7c T _av_bsf_init
00000000003dad5c T _av_bsf_iterate
00000000003dd1a4 T _av_bsf_list_alloc
00000000003dd20c T _av_bsf_list_append
00000000003dd218 T _av_bsf_list_append2
00000000003dd344 T _av_bsf_list_finalize
00000000003dd1ac T _av_bsf_list_free
00000000003dd3cc T _av_bsf_list_parse_str
00000000003dad80 T _av_bsf_next
00000000003dce90 T _av_bsf_receive_packet
00000000003dcdfc T _av_bsf_send_packet
00000000001f4c3c T _av_buffer_alloc
00000000001f4c8c T _av_buffer_allocz
00000000001f4b9c T _av_buffer_create
00000000001f4c34 T _av_buffer_default_free
00000000001f4db8 T _av_buffer_get_opaque
00000000001f4dc4 T _av_buffer_get_ref_count
00000000001f4d90 T _av_buffer_is_writable
00000000001f4dd4 T _av_buffer_make_writable
00000000001f52e0 T _av_buffer_pool_buffer_get_opaque
00000000001f514c T _av_buffer_pool_get
00000000001f5054 T _av_buffer_pool_init
00000000001f4fe8 T _av_buffer_pool_init2
00000000001f50b4 T _av_buffer_pool_uninit
00000000001f4e34 T _av_buffer_realloc
00000000001f4cc0 T _av_buffer_ref
00000000001f4f64 T _av_buffer_replace
00000000001f4d0c T _av_buffer_unref
00000000002631a8 T _av_buffersink_get_channel_layout
000000000026314c T _av_buffersink_get_channels
0000000000262f80 T _av_buffersink_get_format
0000000000262cf0 T _av_buffersink_get_frame
0000000000262cf8 T _av_buffersink_get_frame_flags
0000000000262fdc T _av_buffersink_get_frame_rate
0000000000263094 T _av_buffersink_get_h
0000000000263260 T _av_buffersink_get_hw_frames_ctx
00000000002630f0 T _av_buffersink_get_sample_aspect_ratio
0000000000263204 T _av_buffersink_get_sample_rate
0000000000262e10 T _av_buffersink_get_samples
0000000000262f24 T _av_buffersink_get_time_base
0000000000262e5c T _av_buffersink_get_type
0000000000263038 T _av_buffersink_get_w
0000000000262e1c T _av_buffersink_params_alloc
0000000000262e48 T _av_buffersink_set_frame_size
0000000000263920 T _av_buffersrc_add_frame
0000000000263850 T _av_buffersrc_add_frame_flags
0000000000263bd0 T _av_buffersrc_close
0000000000263c54 T _av_buffersrc_get_nb_failed_requests
0000000000263704 T _av_buffersrc_parameters_alloc
0000000000263724 T _av_buffersrc_parameters_set
0000000000263848 T _av_buffersrc_write_frame
0000000000200094 T _av_calloc
00000000001f5940 T _av_channel_layout_extract_channel
00000000002066a8 T _av_chroma_location_from_name
0000000000206690 T _av_chroma_location_name
0000000000c8c98b S _av_codec_ffversion
0000000000667eec T _av_codec_get_chroma_intra_matrix
0000000000667ebc T _av_codec_get_codec_descriptor
0000000000667efc T _av_codec_get_codec_properties
000000000083d8fc T _av_codec_get_id
0000000000667ecc T _av_codec_get_lowres
0000000000667f04 T _av_codec_get_max_lowres
0000000000667ea4 T _av_codec_get_pkt_timebase
0000000000667edc T _av_codec_get_seek_preroll
000000000083d888 T _av_codec_get_tag
000000000083d8b0 T _av_codec_get_tag2
00000000006676e0 T _av_codec_is_decoder
00000000006676b4 T _av_codec_is_encoder
00000000003b8570 T _av_codec_iterate
00000000003b8644 T _av_codec_next
0000000000667ef4 T _av_codec_set_chroma_intra_matrix
0000000000667ec4 T _av_codec_set_codec_descriptor
0000000000667ed4 T _av_codec_set_lowres
0000000000667eb0 T _av_codec_set_pkt_timebase
0000000000667ee4 T _av_codec_set_seek_preroll
0000000000206578 T _av_color_primaries_from_name
0000000000206560 T _av_color_primaries_name
000000000020651c T _av_color_range_from_name
0000000000206504 T _av_color_range_name
000000000020664c T _av_color_space_from_name
0000000000206634 T _av_color_space_name
00000000002065f0 T _av_color_transfer_from_name
00000000002065d8 T _av_color_transfer_name
00000000001ff86c T _av_compare_mod
00000000001ff7ac T _av_compare_ts
00000000001ff560 T _av_content_light_metadata_alloc
00000000001ff58c T _av_content_light_metadata_create_side_data
00000000003d39d4 T _av_copy_packet
00000000003d3794 T _av_copy_packet_side_data
000000000066a468 T _av_cpb_properties_alloc
00000000001f5f18 T _av_cpu_count
00000000001f5fe4 T _av_cpu_max_align
00000000001f647c T _av_crc
00000000001f6090 T _av_crc_get_table
00000000001f5fe8 T _av_crc_init
0000000000206c00 T _av_d2q
00000000001f37a8 T _av_d2str
00000000003d33f4 T _av_dct_calc
00000000009c80f8 T _av_dct_end
00000000003d33b0 T _av_dct_init
00000000001fe71c T _av_default_get_category
00000000001fe710 T _av_default_item_name
0000000000740094 T _av_demuxer_iterate
000000000083a58c T _av_demuxer_open
00000000001f64cc T _av_des_alloc
00000000001f6610 T _av_des_crypt
00000000001f64d4 T _av_des_init
00000000001f674c T _av_des_mac
0000000000ece8d0 S _av_device_capabilities
0000000000ccd7f8 S _av_device_ffversion
00000000001f6e08 T _av_dict_copy
00000000001f68e8 T _av_dict_count
00000000001f6d9c T _av_dict_free
00000000001f68f4 T _av_dict_get
00000000001f6e68 T _av_dict_get_string
00000000001f6c98 T _av_dict_parse_string
00000000001f69bc T _av_dict_set
00000000001f6c0c T _av_dict_set_int
000000000043a268 T _av_dirac_parse_sequence_header
00000000001f3bc0 T _av_dirname
00000000001f71c4 T _av_display_matrix_flip
00000000001f70ac T _av_display_rotation_get
00000000001f7160 T _av_display_rotation_set
0000000000206ba8 T _av_div_q
00000000001f7264 T _av_dovi_alloc
00000000001f7294 T _av_downmix_info_update_side_data
000000000076af30 T _av_dump_format
00000000003d3894 T _av_dup_packet
000000000044f0bc T _av_dv_codec_profile
000000000044f0c4 T _av_dv_codec_profile2
000000000044f0a4 T _av_dv_frame_profile
00000000001fbd80 T _av_dynamic_hdr_plus_alloc
00000000001fbdb0 T _av_dynamic_hdr_plus_create_side_data
00000000002002ac T _av_dynarray2_add
0000000000200234 T _av_dynarray_add
00000000002001c0 T _av_dynarray_add_nofree
00000000001f7518 T _av_encryption_info_add_side_data
00000000001f72d0 T _av_encryption_info_alloc
00000000001f7394 T _av_encryption_info_clone
00000000001f7360 T _av_encryption_info_free
00000000001f740c T _av_encryption_info_get_side_data
00000000001f78e0 T _av_encryption_init_info_add_side_data
00000000001f7628 T _av_encryption_init_info_alloc
00000000001f7710 T _av_encryption_init_info_free
00000000001f7770 T _av_encryption_init_info_get_side_data
00000000001f3cf8 T _av_escape
00000000001f8074 T _av_expr_count_func
00000000001f7fc4 T _av_expr_count_vars
00000000001f80d0 T _av_expr_eval
00000000001f7c50 T _av_expr_free
00000000001f7ca0 T _av_expr_parse
00000000001f88a8 T _av_expr_parse_and_eval
00000000002005f8 T _av_fast_malloc
00000000002006b8 T _av_fast_mallocz
000000000066754c T _av_fast_padded_malloc
0000000000667654 T _av_fast_padded_mallocz
0000000000200590 T _av_fast_realloc
00000000003d32e4 T _av_fft_calc
00000000009c8098 T _av_fft_end
00000000003d3294 T _av_fft_init
00000000003d32dc T _av_fft_permute
00000000001f9590 T _av_fifo_alloc
00000000001f95fc T _av_fifo_alloc_array
00000000001f9a14 T _av_fifo_drain
00000000001f961c T _av_fifo_free
00000000001f9644 T _av_fifo_freep
00000000001f9980 T _av_fifo_generic_peek
00000000001f98c4 T _av_fifo_generic_peek_at
00000000001f9748 T _av_fifo_generic_read
00000000001f9818 T _av_fifo_generic_write
00000000001f97d0 T _av_fifo_grow
00000000001f96a4 T _av_fifo_realloc2
00000000001f966c T _av_fifo_reset
00000000001f967c T _av_fifo_size
00000000001f9688 T _av_fifo_space
00000000001f9a68 T _av_file_map
00000000001f9bd0 T _av_file_unmap
000000000083a51c T _av_filename_number_test
00000000001f9e10 T _av_film_grain_params_alloc
00000000001f9e3c T _av_film_grain_params_create_side_data
0000000000adcdf4 S _av_filter_ffversion
000000000024d338 T _av_filter_iterate
00000000002063f0 T _av_find_best_pix_fmt_of_2
00000000008404c4 T _av_find_best_stream
000000000083c2a0 T _av_find_default_stream_index
000000000020541c T _av_find_info_tag
0000000000778668 T _av_find_input_format
0000000000206df4 T _av_find_nearest_q_idx
000000000084045c T _av_find_program_from_stream
00000000007fa7ac T _av_fmt_ctx_get_duration_estimation_method
00000000001f9d60 T _av_fopen_utf8
00000000001f5e34 T _av_force_cpu_flags
0000000000cccd24 S _av_format_ffversion
000000000083a124 T _av_format_get_audio_codec
000000000083a174 T _av_format_get_control_message_cb
000000000083a144 T _av_format_get_data_codec
000000000083a154 T _av_format_get_metadata_header_padding
000000000083a164 T _av_format_get_opaque
000000000083a184 T _av_format_get_open_cb
000000000083a2e8 T _av_format_get_probe_score
000000000083a134 T _av_format_get_subtitle_codec
000000000083a114 T _av_format_get_video_codec
000000000083a1b8 T _av_format_inject_global_side_data
000000000083a12c T _av_format_set_audio_codec
000000000083a17c T _av_format_set_control_message_cb
000000000083a14c T _av_format_set_data_codec
000000000083a15c T _av_format_set_metadata_header_padding
000000000083a16c T _av_format_set_opaque
000000000083a18c T _av_format_set_open_cb
000000000083a13c T _av_format_set_subtitle_codec
000000000083a11c T _av_format_set_video_codec
0000000000215df4 T _av_fourcc_make_string
00000000001fa66c T _av_frame_alloc
00000000001fb4a4 T _av_frame_apply_cropping
00000000001fb11c T _av_frame_clone
00000000001faf4c T _av_frame_copy
00000000001fb374 T _av_frame_copy_props
00000000001fa730 T _av_frame_free
00000000001fa2d0 T _av_frame_get_best_effort_timestamp
00000000001fa80c T _av_frame_get_buffer
00000000001fa300 T _av_frame_get_channel_layout
00000000001fa310 T _av_frame_get_channels
00000000001fa370 T _av_frame_get_color_range
00000000001fa360 T _av_frame_get_colorspace
00000000001fa340 T _av_frame_get_decode_error_flags
00000000001fa330 T _av_frame_get_metadata
00000000001fa2e0 T _av_frame_get_pkt_duration
00000000001fa2f0 T _av_frame_get_pkt_pos
00000000001fa350 T _av_frame_get_pkt_size
00000000001fb37c T _av_frame_get_plane_buffer
00000000001fa584 T _av_frame_get_qp_table
00000000001fa320 T _av_frame_get_sample_rate
00000000001fa610 T _av_frame_get_side_data
00000000001fb1fc T _av_frame_is_writable
00000000001fb288 T _av_frame_make_writable
00000000001fb1bc T _av_frame_move_ref
00000000001fa53c T _av_frame_new_side_data
00000000001fa4ac T _av_frame_new_side_data_from_buf
00000000001fabbc T _av_frame_ref
00000000001fa438 T _av_frame_remove_side_data
00000000001fa2d8 T _av_frame_set_best_effort_timestamp
00000000001fa308 T _av_frame_set_channel_layout
00000000001fa318 T _av_frame_set_channels
00000000001fa378 T _av_frame_set_color_range
00000000001fa368 T _av_frame_set_colorspace
00000000001fa348 T _av_frame_set_decode_error_flags
00000000001fa338 T _av_frame_set_metadata
00000000001fa2e8 T _av_frame_set_pkt_duration
00000000001fa2f8 T _av_frame_set_pkt_pos
00000000001fa358 T _av_frame_set_pkt_size
00000000001fa380 T _av_frame_set_qp_table
00000000001fa328 T _av_frame_set_sample_rate
00000000001fb488 T _av_frame_side_data_name
00000000001fa760 T _av_frame_unref
00000000001fff30 T _av_free
00000000003d3a58 T _av_free_packet
00000000001fff88 T _av_freep
00000000001ff5b4 T _av_gcd
0000000000206f50 T _av_gcd_q
00000000002082ec T _av_get_alt_sample_fmt
0000000000669a48 T _av_get_audio_frame_duration
000000000066a18c T _av_get_audio_frame_duration2
0000000000205a10 T _av_get_bits_per_pixel
00000000006699f8 T _av_get_bits_per_sample
0000000000208440 T _av_get_bytes_per_sample
00000000001f58e8 T _av_get_channel_description
00000000001f5360 T _av_get_channel_layout
00000000001f5840 T _av_get_channel_layout_channel_index
00000000001f55d4 T _av_get_channel_layout_nb_channels
00000000001f5788 T _av_get_channel_layout_string
00000000001f588c T _av_get_channel_name
0000000000668f60 T _av_get_codec_tag_string
00000000001fa650 T _av_get_colorspace_name
00000000001f5e40 T _av_get_cpu_flags
00000000001f5800 T _av_get_default_channel_layout
00000000006698bc T _av_get_exact_bits_per_sample
00000000001f552c T _av_get_extended_channel_layout
000000000083a584 T _av_get_frame_filename
00000000008410dc T _av_get_frame_filename2
0000000000204b50 T _av_get_known_color_name
0000000000215ccc T _av_get_media_type_string
00000000007ded58 T _av_get_output_timestamp
0000000000208330 T _av_get_packed_sample_fmt
000000000083a3c4 T _av_get_packet
0000000000205a58 T _av_get_padded_bits_per_pixel
00000000006699d0 T _av_get_pcm_codec
0000000000215cec T _av_get_picture_type_char
00000000002058d4 T _av_get_pix_fmt
00000000002060cc T _av_get_pix_fmt_loss
00000000002058b0 T _av_get_pix_fmt_name
0000000000205b18 T _av_get_pix_fmt_string
0000000000208360 T _av_get_planar_sample_fmt
000000000066985c T _av_get_profile_name
0000000000206a28 T _av_get_random_seed
0000000000208294 T _av_get_sample_fmt
0000000000208278 T _av_get_sample_fmt_name
0000000000208390 T _av_get_sample_fmt_string
00000000001f5994 T _av_get_standard_channel_layout
0000000000215ed4 T _av_get_time_base_q
00000000001f37fc T _av_get_token
0000000000209e48 T _av_gettime
0000000000209e7c T _av_gettime_relative
0000000000209eb8 T _av_gettime_relative_is_monotonic
00000000003d35d0 T _av_grow_packet
0000000000778580 T _av_guess_codec
0000000000778450 T _av_guess_format
0000000000841ae8 T _av_guess_frame_rate
0000000000841a04 T _av_guess_sample_aspect_ratio
00000000001fb7fc T _av_hash_alloc
00000000001fba84 T _av_hash_final
00000000001fbc94 T _av_hash_final_b64
00000000001fbb2c T _av_hash_final_bin
00000000001fbbc8 T _av_hash_final_hex
00000000001fbd48 T _av_hash_freep
00000000001fb7cc T _av_hash_get_name
00000000001fb7e4 T _av_hash_get_size
00000000001fb8e8 T _av_hash_init
00000000001fb7a8 T _av_hash_names
00000000001fb9b4 T _av_hash_update
000000000076aa90 T _av_hex_dump
000000000076ac70 T _av_hex_dump_log
00000000001fbde8 T _av_hmac_alloc
00000000001fc140 T _av_hmac_calc
00000000001fc058 T _av_hmac_final
00000000001fbf20 T _av_hmac_free
00000000001fbf48 T _av_hmac_init
00000000001fc048 T _av_hmac_update
000000000066a268 T _av_hwaccel_next
00000000001fc254 T _av_hwdevice_ctx_alloc
00000000001fcb20 T _av_hwdevice_ctx_create
00000000001fcbbc T _av_hwdevice_ctx_create_derived
00000000001fcb4c T _av_hwdevice_ctx_create_derived_opts
00000000001fc25c T _av_hwdevice_ctx_init
00000000001fc1d4 T _av_hwdevice_find_type_by_name
00000000001fca6c T _av_hwdevice_get_hwframe_constraints
00000000001fc228 T _av_hwdevice_get_type_name
00000000001fca50 T _av_hwdevice_hwconfig_alloc
00000000001fc24c T _av_hwdevice_iterate_types
00000000001fcaf0 T _av_hwframe_constraints_free
00000000001fc2b4 T _av_hwframe_ctx_alloc
00000000001fccd4 T _av_hwframe_ctx_create_derived
00000000001fc460 T _av_hwframe_ctx_init
00000000001fc80c T _av_hwframe_get_buffer
00000000001fc934 T _av_hwframe_map
00000000001fc630 T _av_hwframe_transfer_data
00000000001fc60c T _av_hwframe_transfer_get_formats
00000000007400dc T _av_iformat_next
00000000001fd3d4 T _av_image_alloc
00000000001fd6d0 T _av_image_check_sar
00000000001fd5d8 T _av_image_check_size
00000000001fd5ec T _av_image_check_size2
00000000001fd838 T _av_image_copy
00000000001fd738 T _av_image_copy_plane
00000000001fdc74 T _av_image_copy_to_buffer
00000000001fda60 T _av_image_copy_uc_from
00000000001fda70 T _av_image_fill_arrays
00000000001fde74 T _av_image_fill_black
00000000001fcfe0 T _av_image_fill_linesizes
00000000001fcea4 T _av_image_fill_max_pixsteps
00000000001fd08c T _av_image_fill_plane_sizes
00000000001fd1d8 T _av_image_fill_pointers
00000000001fdb3c T _av_image_get_buffer_size
00000000001fcef4 T _av_image_get_linesize
00000000003d334c T _av_imdct_calc
00000000003d3354 T _av_imdct_half
000000000083ca4c T _av_index_search_timestamp
00000000003d3444 T _av_init_packet
0000000000855430 T _av_input_audio_device_next
000000000085547c T _av_input_video_device_next
0000000000215d18 T _av_int_list_length_for_size
00000000007de99c T _av_interleaved_write_frame
00000000007def60 T _av_interleaved_write_uncoded_frame
00000000009a5918 T _av_lfg_init
00000000001fe380 T _av_lfg_init_from_data
000000000066a270 T _av_lockmgr_register
00000000001fee64 T _av_log
00000000001fe298 T _av_log2
00000000001fe29c T _av_log2_16bit
00000000001fea00 T _av_log_default_callback
00000000001fe728 T _av_log_format_line
00000000001fe72c T _av_log_format_line2
00000000001fef78 T _av_log_get_flags
00000000001fef28 T _av_log_get_level
0000000000f3ccf8 S _av_log_level
00000000001feee0 T _av_log_once
00000000001fef84 T _av_log_set_callback
00000000001fef6c T _av_log_set_flags
00000000001fef48 T _av_log_set_level
00000000001ff0e0 T _av_lzo1x_decode
00000000001ffe64 T _av_malloc
00000000001fff98 T _av_malloc_array
00000000001fffec T _av_mallocz
00000000001fffc4 T _av_mallocz_array
00000000001ff520 T _av_mastering_display_metadata_alloc
00000000001ff528 T _av_mastering_display_metadata_create_side_data
0000000000778410 T _av_match_ext
00000000001f4008 T _av_match_list
00000000001f3db8 T _av_match_name
00000000001ffe58 T _av_max_alloc
00000000001ffb08 T _av_md5_alloc
00000000001ffd50 T _av_md5_final
00000000001ffb10 T _av_md5_init
0000000000acbc90 S _av_md5_size
00000000001ffde8 T _av_md5_sum
00000000001ffb24 T _av_md5_update
00000000003d335c T _av_mdct_calc
00000000009c80b8 T _av_mdct_end
00000000003d32ec T _av_mdct_init
0000000000200364 T _av_memcpy_backptr
000000000020017c T _av_memdup
0000000000206b74 T _av_mul_q
000000000020071c T _av_murmur3_alloc
00000000002008cc T _av_murmur3_final
0000000000200738 T _av_murmur3_init
0000000000200724 T _av_murmur3_init_seeded
000000000020074c T _av_murmur3_update
000000000074004c T _av_muxer_iterate
0000000000206d1c T _av_nearer_q
00000000003d34f8 T _av_new_packet
0000000000840de8 T _av_new_program
00000000007401f0 T _av_oformat_next
0000000000203628 T _av_opt_child_class_iterate
0000000000203688 T _av_opt_child_class_next
0000000000203674 T _av_opt_child_next
00000000002036e4 T _av_opt_copy
0000000000201818 T _av_opt_eval_double
000000000020176c T _av_opt_eval_flags
00000000002017ec T _av_opt_eval_float
0000000000201794 T _av_opt_eval_int
00000000002017c0 T _av_opt_eval_int64
0000000000201844 T _av_opt_eval_q
00000000002025f0 T _av_opt_find
0000000000200dac T _av_opt_find2
0000000000202554 T _av_opt_flag_is_set
00000000002034d0 T _av_opt_free
0000000000203a1c T _av_opt_freep_ranges
0000000000201d14 T _av_opt_get
0000000000202488 T _av_opt_get_channel_layout
00000000002024f8 T _av_opt_get_dict_val
0000000000202268 T _av_opt_get_double
00000000002022e4 T _av_opt_get_image_size
00000000002021d0 T _av_opt_get_int
000000000020317c T _av_opt_get_key_value
00000000002023d8 T _av_opt_get_pixel_fmt
0000000000202290 T _av_opt_get_q
0000000000202478 T _av_opt_get_sample_fmt
0000000000202384 T _av_opt_get_video_rate
0000000000203aa0 T _av_opt_is_set_to_default
0000000000203e8c T _av_opt_is_set_to_default_by_name
00000000002009d4 T _av_opt_next
000000000020369c T _av_opt_ptr
000000000020386c T _av_opt_query_ranges
00000000002038dc T _av_opt_query_ranges_default
0000000000203ecc T _av_opt_serialize
0000000000200a10 T _av_opt_set
0000000000201930 T _av_opt_set_bin
0000000000201c3c T _av_opt_set_channel_layout
0000000000202ea0 T _av_opt_set_defaults
0000000000202eac T _av_opt_set_defaults2
0000000000203620 T _av_opt_set_dict
000000000020353c T _av_opt_set_dict2
0000000000201cb0 T _av_opt_set_dict_val
000000000020190c T _av_opt_set_double
00000000002032e4 T _av_opt_set_from_string
00000000002019e0 T _av_opt_set_image_size
0000000000201870 T _av_opt_set_int
0000000000201b38 T _av_opt_set_pixel_fmt
000000000020191c T _av_opt_set_q
0000000000201c28 T _av_opt_set_sample_fmt
0000000000201aa0 T _av_opt_set_video_rate
00000000002025f8 T _av_opt_show2
0000000000855484 T _av_output_audio_device_next
000000000085548c T _av_output_video_device_next
00000000003d3a90 T _av_packet_add_side_data
00000000003d3474 T _av_packet_alloc
00000000003d4314 T _av_packet_clone
00000000003d41cc T _av_packet_copy_props
00000000003d34a0 T _av_packet_free
00000000003d3a04 T _av_packet_free_side_data
00000000003d3724 T _av_packet_from_data
00000000003d3bd4 T _av_packet_get_side_data
00000000003d4384 T _av_packet_make_refcounted
00000000003d43d8 T _av_packet_make_writable
00000000003d3c58 T _av_packet_merge_side_data
00000000003d4364 T _av_packet_move_ref
00000000003d3b5c T _av_packet_new_side_data
00000000003d3fb4 T _av_packet_pack_dictionary
00000000003d4274 T _av_packet_ref
00000000003d4444 T _av_packet_rescale_ts
00000000003d4168 T _av_packet_shrink_side_data
00000000003d3c38 T _av_packet_side_data_name
00000000003d3e04 T _av_packet_split_side_data
00000000003d40c0 T _av_packet_unpack_dictionary
00000000003d34d8 T _av_packet_unref
0000000000204868 T _av_parse_color
00000000001f5ee0 T _av_parse_cpu_caps
00000000001f5e94 T _av_parse_cpu_flags
0000000000204624 T _av_parse_ratio
0000000000204f70 T _av_parse_time
00000000002047cc T _av_parse_video_rate
00000000002046f4 T _av_parse_video_size
00000000005e85dc T _av_parser_change
00000000005e86c8 T _av_parser_close
00000000005e8258 T _av_parser_init
00000000005e8a58 T _av_parser_iterate
00000000005e89d0 T _av_parser_next
00000000005e8418 T _av_parser_parse2
000000000053f700 T _av_picture_crop
000000000053f8ec T _av_picture_pad
0000000000205c5c T _av_pix_fmt_count_planes
0000000000205b9c T _av_pix_fmt_desc_get
0000000000205bf4 T _av_pix_fmt_desc_get_id
0000000000205bb8 T _av_pix_fmt_desc_next
0000000000205c24 T _av_pix_fmt_get_chroma_sub_sample
0000000000205ff8 T _av_pix_fmt_swap_endianness
0000000000206894 T _av_pixelutils_get_sad_fn
000000000076ac88 T _av_pkt_dump2
000000000076af14 T _av_pkt_dump_log2
0000000000778b98 T _av_probe_input_buffer
0000000000778948 T _av_probe_input_buffer2
0000000000778928 T _av_probe_input_format
00000000007788ec T _av_probe_input_format2
00000000007786a8 T _av_probe_input_format3
0000000000840f9c T _av_program_add_stream_index
0000000000206e5c T _av_q2intfloat
0000000000206fe8 T _av_rc4_alloc
0000000000207080 T _av_rc4_crypt
0000000000206ff0 T _av_rc4_init
00000000003d33a8 T _av_rdft_calc
00000000009c80d8 T _av_rdft_end
00000000003d3364 T _av_rdft_init
000000000083b8d8 T _av_read_frame
00000000002056f0 T _av_read_image_line
0000000000205584 T _av_read_image_line2
0000000000840748 T _av_read_pause
0000000000840720 T _av_read_play
00000000001ffec0 T _av_realloc
000000000020001c T _av_realloc_array
00000000001ffee0 T _av_realloc_f
00000000001fff34 T _av_reallocp
0000000000200048 T _av_reallocp_array
0000000000206a2c T _av_reduce
0000000000740234 T _av_register_all
00000000003daa48 T _av_register_bitstream_filter
00000000005e8a44 T _av_register_codec_parser
000000000066a26c T _av_register_hwaccel
0000000000740248 T _av_register_input_format
000000000074025c T _av_register_output_format
00000000001ff780 T _av_rescale
00000000001ff888 T _av_rescale_delta
00000000001ff7a4 T _av_rescale_q
00000000001ff788 T _av_rescale_q_rnd
00000000001ff628 T _av_rescale_rnd
00000000002070f8 T _av_ripemd_alloc
0000000000208198 T _av_ripemd_final
00000000009a59f8 T _av_ripemd_init
0000000000acc030 S _av_ripemd_size
0000000000208114 T _av_ripemd_update
000000000020846c T _av_sample_fmt_is_planar
0000000000208610 T _av_samples_alloc
0000000000208788 T _av_samples_alloc_array_and_samples
000000000020881c T _av_samples_copy
0000000000208558 T _av_samples_fill_arrays
0000000000208494 T _av_samples_get_buffer_size
00000000002086dc T _av_samples_set_silence
0000000000824bd4 T _av_sdp_create
000000000083d1cc T _av_seek_frame
00000000001f5e6c T _av_set_cpu_flags_mask
0000000000203000 T _av_set_options_string
0000000000208dac T _av_sha512_alloc
0000000000208fc0 T _av_sha512_final
00000000009a5b50 T _av_sha512_init
0000000000acc778 S _av_sha512_size
0000000000208db4 T _av_sha512_update
0000000000208914 T _av_sha_alloc
0000000000208cfc T _av_sha_final
00000000009a5ac0 T _av_sha_init
0000000000acc670 S _av_sha_size
0000000000208c78 T _av_sha_update
00000000003d35a8 T _av_shrink_packet
0000000000204b88 T _av_small_strptime
000000000020962c T _av_spherical_alloc
00000000002096f4 T _av_spherical_from_name
00000000002096d0 T _av_spherical_projection_name
000000000020965c T _av_spherical_tile_bounds
00000000001f163c T _av_sscanf
0000000000209758 T _av_stereo3d_alloc
0000000000209760 T _av_stereo3d_create_side_data
00000000002097b0 T _av_stereo3d_from_name
000000000020978c T _av_stereo3d_type_name
00000000001f39c4 T _av_strcasecmp
00000000002000bc T _av_strdup
00000000008422a0 T _av_stream_add_side_data
0000000000842c40 T _av_stream_get_codec_timebase
000000000083a194 T _av_stream_get_end_pts
000000000083a1b0 T _av_stream_get_parser
000000000083a0f4 T _av_stream_get_r_frame_rate
000000000083a104 T _av_stream_get_recommended_encoder_configuration
000000000084223c T _av_stream_get_side_data
000000000084236c T _av_stream_new_side_data
000000000083a0fc T _av_stream_set_r_frame_rate
000000000083a10c T _av_stream_set_recommended_encoder_configuration
00000000001f7a5c T _av_strerror
00000000001f3a60 T _av_strireplace
00000000001f3524 T _av_stristart
00000000001f3588 T _av_stristr
00000000001f3688 T _av_strlcat
00000000001f36dc T _av_strlcatf
00000000001f362c T _av_strlcpy
00000000001f3a08 T _av_strncasecmp
0000000000200110 T _av_strndup
00000000001f35cc T _av_strnstr
00000000001f34e0 T _av_strstart
00000000001f7b08 T _av_strtod
00000000001f3944 T _av_strtok
0000000000206bf0 T _av_sub_q
0000000000209814 T _av_tea_alloc
0000000000209844 T _av_tea_crypt
000000000020981c T _av_tea_init
0000000000accc80 S _av_tea_size
00000000001f9be0 T _av_tempfile
0000000000209ba0 T _av_thread_message_flush
0000000000209a20 T _av_thread_message_queue_alloc
0000000000209b40 T _av_thread_message_queue_free
0000000000209c34 T _av_thread_message_queue_nb_elems
0000000000209cf8 T _av_thread_message_queue_recv
0000000000209c7c T _av_thread_message_queue_send
0000000000209da8 T _av_thread_message_queue_set_err_recv
0000000000209d84 T _av_thread_message_queue_set_err_send
0000000000209b38 T _av_thread_message_queue_set_free_func
0000000000209f14 T _av_timecode_adjust_ntsc_framenum2
000000000020a3d8 T _av_timecode_check_frame_rate
0000000000209fe4 T _av_timecode_get_smpte
0000000000209f60 T _av_timecode_get_smpte_from_framenum
000000000020a444 T _av_timecode_init
000000000020a518 T _av_timecode_init_from_components
000000000020a5c8 T _av_timecode_init_from_string
000000000020a37c T _av_timecode_make_mpeg_tc_string
000000000020a360 T _av_timecode_make_smpte_tc_string
000000000020a244 T _av_timecode_make_smpte_tc_string2
000000000020a160 T _av_timecode_make_string
0000000000204ed8 T _av_timegm
000000000020a938 T _av_tree_destroy
000000000020a96c T _av_tree_enumerate
000000000020a680 T _av_tree_find
000000000020a700 T _av_tree_insert
000000000020a678 T _av_tree_node_alloc
0000000000accca8 S _av_tree_node_size
00000000009a5c58 T _av_tx_init
00000000009a5bfc T _av_tx_uninit
0000000000841240 T _av_url_split
0000000000209ec0 T _av_usleep
00000000001f3e98 T _av_utf8_decode
0000000000accdc0 S _av_util_ffversion
00000000001f45a0 T _av_vbprintf
0000000000215c48 T _av_version_info
0000000000215ee8 T _av_video_enc_params_alloc
0000000000215f44 T _av_video_enc_params_create_side_data
00000000001fee84 T _av_vlog
0000000000695010 T _av_vorbis_parse_frame
0000000000694f04 T _av_vorbis_parse_frame_flags
000000000069502c T _av_vorbis_parse_free
0000000000695030 T _av_vorbis_parse_init
0000000000695018 T _av_vorbis_parse_reset
00000000007de79c T _av_write_frame
0000000000205890 T _av_write_image_line
0000000000205714 T _av_write_image_line2
00000000007dea88 T _av_write_trailer
00000000007dee2c T _av_write_uncoded_frame
00000000007def68 T _av_write_uncoded_frame_query
000000000066a1c0 T _av_xiphlacing
0000000000667a04 T _avcodec_align_dimensions
000000000066782c T _avcodec_align_dimensions2
00000000005da7dc T _avcodec_alloc_context3
0000000000667b00 T _avcodec_chroma_pos_to_enum
00000000009f56d0 T _avcodec_close
00000000006698a4 T _avcodec_configuration
00000000005da884 T _avcodec_copy_context
00000000003d316c T _avcodec_dct_alloc
00000000003d3160 T _avcodec_dct_get_class
00000000003d31a8 T _avcodec_dct_init
00000000004379ec T _avcodec_decode_audio4
00000000004379f0 T _avcodec_decode_subtitle2
0000000000437718 T _avcodec_decode_video2
0000000000667dd0 T _avcodec_default_execute
0000000000667e28 T _avcodec_default_execute2
0000000000438524 T _avcodec_default_get_buffer2
0000000000437ee0 T _avcodec_default_get_format
000000000041fc9c T _avcodec_descriptor_get
000000000041fd10 T _avcodec_descriptor_get_by_name
000000000041fce4 T _avcodec_descriptor_next
0000000000463024 T _avcodec_encode_audio2
00000000004628d4 T _avcodec_encode_subtitle
000000000046322c T _avcodec_encode_video2
0000000000667ac0 T _avcodec_enum_to_chroma_pos
0000000000667b68 T _avcodec_fill_audio_frame
000000000053f684 T _avcodec_find_best_pix_fmt2
000000000053f680 T _avcodec_find_best_pix_fmt_of_2
000000000053f688 T _avcodec_find_best_pix_fmt_of_list
00000000003b8708 T _avcodec_find_decoder
00000000003b877c T _avcodec_find_decoder_by_name
00000000003b8698 T _avcodec_find_encoder
00000000003b8714 T _avcodec_find_encoder_by_name
0000000000668d08 T _avcodec_flush_buffers
00000000005da824 T _avcodec_free_context
000000000053f610 T _avcodec_get_chroma_sub_sample
00000000005dab84 T _avcodec_get_class
00000000005da644 T _avcodec_get_context_defaults3
00000000005dab90 T _avcodec_get_frame_class
000000000066a230 T _avcodec_get_hw_config
00000000004380e8 T _avcodec_get_hw_frames_parameters
0000000000668ee8 T _avcodec_get_name
000000000053f67c T _avcodec_get_pix_fmt_loss
00000000005dab9c T _avcodec_get_subtitle_rect_class
000000000041fd7c T _avcodec_get_type
0000000000668c48 T _avcodec_is_open
00000000006698b0 T _avcodec_license
0000000000667f18 T _avcodec_open2
000000000066a564 T _avcodec_parameters_alloc
000000000066a61c T _avcodec_parameters_copy
000000000066a5e8 T _avcodec_parameters_free
000000000066a680 T _avcodec_parameters_from_context
000000000066a7ac T _avcodec_parameters_to_context
000000000060de34 T _avcodec_pix_fmt_to_codec_tag
00000000006697fc T _avcodec_profile_name
00000000004374b4 T _avcodec_receive_frame
0000000000462fa0 T _avcodec_receive_packet
00000000009c50ec T _avcodec_register
00000000003b8684 T _avcodec_register_all
0000000000462974 T _avcodec_send_frame
0000000000436b80 T _avcodec_send_packet
0000000000669048 T _avcodec_string
0000000000669898 T _avcodec_version
00000000008554b8 T _avdevice_app_to_dev_control_message
00000000008554e8 T _avdevice_capabilities_create
000000000085560c T _avdevice_capabilities_free
00000000008554a0 T _avdevice_configuration
00000000008554d4 T _avdevice_dev_to_app_control_message
00000000008557e0 T _avdevice_free_list_devices
00000000008554ac T _avdevice_license
00000000008556a4 T _avdevice_list_devices
00000000008558a0 T _avdevice_list_input_sources
0000000000855940 T _avdevice_list_output_sinks
000000000085541c T _avdevice_register_all
0000000000855494 T _avdevice_version
000000000027fca4 T _avfilter_add_matrix
000000000025e288 T _avfilter_config_links
000000000025dbb0 T _avfilter_configuration
000000000025eb30 T _avfilter_free
000000000024d360 T _avfilter_get_by_name
000000000025fea8 T _avfilter_get_class
0000000000260248 T _avfilter_graph_alloc
000000000026042c T _avfilter_graph_alloc_filter
00000000002605b4 T _avfilter_graph_config
00000000002603cc T _avfilter_graph_create_filter
000000000027b82c T _avfilter_graph_dump
0000000000260334 T _avfilter_graph_free
0000000000260548 T _avfilter_graph_get_filter
000000000027c7b0 T _avfilter_graph_parse
000000000027bf4c T _avfilter_graph_parse2
000000000027c990 T _avfilter_graph_parse_ptr
0000000000261a7c T _avfilter_graph_queue_command
0000000000261cdc T _avfilter_graph_request_oldest
0000000000261960 T _avfilter_graph_send_command
0000000000260540 T _avfilter_graph_set_auto_convert
000000000025ed88 T _avfilter_init_dict
000000000025ee88 T _avfilter_init_str
000000000027bf08 T _avfilter_inout_alloc
000000000027bf10 T _avfilter_inout_free
000000000025e16c T _avfilter_insert_filter
000000000025dbbc T _avfilter_license
000000000025dd24 T _avfilter_link
000000000025df14 T _avfilter_link_free
000000000025df60 T _avfilter_link_get_channels
000000000025e154 T _avfilter_link_set_closed
00000000002795cc T _avfilter_make_format64_list
000000000027fcf4 T _avfilter_mul_matrix
000000000024d428 T _avfilter_next
000000000025e904 T _avfilter_pad_count
000000000025f420 T _avfilter_pad_get_name
000000000025f42c T _avfilter_pad_get_type
000000000025e654 T _avfilter_process_command
000000000024d404 T _avfilter_register
000000000024d3bc T _avfilter_register_all
000000000027fccc T _avfilter_sub_matrix
000000000027fd18 T _avfilter_transform
000000000025dba4 T _avfilter_version
00000000007fa710 T _avformat_alloc_context
00000000007dd774 T _avformat_alloc_output_context2
0000000000840a90 T _avformat_close_input
000000000083a09c T _avformat_configuration
000000000083e1a8 T _avformat_find_stream_info
000000000083d6c8 T _avformat_flush
000000000083ac40 T _avformat_free_context
00000000007fa7b4 T _avformat_get_class
000000000079bab0 T _avformat_get_mov_audio_tags
000000000079baa4 T _avformat_get_mov_video_tags
00000000008007b8 T _avformat_get_riff_audio_tags
00000000008007ac T _avformat_get_riff_video_tags
00000000007dd8b4 T _avformat_init_output
000000000083a0a8 T _avformat_license
0000000000841c18 T _avformat_match_stream_specifier
000000000084190c T _avformat_network_deinit
00000000008418f0 T _avformat_network_init
0000000000840b24 T _avformat_new_stream
000000000083a6c4 T _avformat_open_input
0000000000841860 T _avformat_query_codec
000000000083a624 T _avformat_queue_attached_pictures
000000000083d504 T _avformat_seek_file
00000000008429bc T _avformat_transfer_internal_stream_timing_info
000000000083a090 T _avformat_version
00000000007ddf34 T _avformat_write_header
00000000007595dc T _avio_accept
00000000007577ac T _avio_alloc_context
0000000000756fb0 T _avio_check
000000000075931c T _avio_close
00000000007572d0 T _avio_close_dir
0000000000759778 T _avio_close_dyn_buf
0000000000758e9c T _avio_closep
000000000075781c T _avio_context_free
00000000007fc9e0 T _avio_enum_protocols
0000000000757f7c T _avio_feof
0000000000756f98 T _avio_find_protocol_name
00000000007579f4 T _avio_flush
0000000000757294 T _avio_free_directory_entry
00000000007596cc T _avio_get_dyn_buf
0000000000758a94 T _avio_get_str
0000000000758bfc T _avio_get_str16be
0000000000758b24 T _avio_get_str16le
000000000075960c T _avio_handshake
00000000007592b0 T _avio_open
00000000007592bc T _avio_open2
0000000000757130 T _avio_open_dir
0000000000759614 T _avio_open_dyn_buf
0000000000759498 T _avio_pause
0000000000759454 T _avio_print_string_array
00000000007593a8 T _avio_printf
00000000007fca34 T _avio_protocol_get_class
0000000000758014 T _avio_put_str
00000000007581d0 T _avio_put_str16be
0000000000758064 T _avio_put_str16le
0000000000758424 T _avio_r8
00000000007587dc T _avio_rb16
00000000007587fc T _avio_rb24
000000000075881c T _avio_rb32
0000000000758cd4 T _avio_rb64
000000000075846c T _avio_read
0000000000757248 T _avio_read_dir
0000000000758690 T _avio_read_partial
0000000000759514 T _avio_read_to_bprint
000000000075874c T _avio_rl16
000000000075876c T _avio_rl24
000000000075878c T _avio_rl32
00000000007587b4 T _avio_rl64
0000000000757b08 T _avio_seek
00000000007594b0 T _avio_seek_time
0000000000757ef8 T _avio_size
0000000000757ef0 T _avio_skip
0000000000757820 T _avio_w8
0000000000758244 T _avio_wb16
000000000075828c T _avio_wb24
0000000000757fe0 T _avio_wb32
0000000000758200 T _avio_wb64
000000000075822c T _avio_wl16
0000000000758268 T _avio_wl24
0000000000757fb8 T _avio_wl32
00000000007581d8 T _avio_wl64
000000000075793c T _avio_write
00000000007582b0 T _avio_write_marker
0000000000afe254 S _avpriv_ac3_channel_layout_tab
000000000039ee44 T _avpriv_ac3_parse_header
00000000003d9a9c T _avpriv_align_put_bits
00000000001f9e74 T _avpriv_alloc_fixed_dsp
0000000000acce00 S _avpriv_cga_font
0000000000667f0c T _avpriv_codec_get_cap_skip_frame_fill_param
00000000003d9aac T _avpriv_copy_bits
000000000042245c T _avpriv_dca_convert_bitstream
00000000004228f0 T _avpriv_dca_parse_core_frame_header
0000000000b21864 S _avpriv_dca_sample_rates
00000000001f6fa8 T _avpriv_dict_set_timestamp
0000000000444514 T _avpriv_dnxhd_get_frame_size
0000000000444534 T _avpriv_dnxhd_get_hr_frame_size
00000000004445a0 T _avpriv_dnxhd_get_interlaced
0000000000461c30 T _avpriv_do_elbg
000000000076c4b0 T _avpriv_dv_get_packet
000000000076c408 T _avpriv_dv_init_demux
000000000076c520 T _avpriv_dv_produce_packet
0000000000468ab0 T _avpriv_exif_decode_ifd
0000000000667e7c T _avpriv_find_pix_fmt
000000000066a37c T _avpriv_find_start_code
0000000000475bec T _avpriv_fits_header_init
0000000000475c28 T _avpriv_fits_header_parse_line
00000000009a5850 T _avpriv_float_dsp_alloc
00000000001f5a10 T _avpriv_get_gamma_from_trc
000000000060de28 T _avpriv_get_raw_pix_fmt_tags
00000000001f5a30 T _avpriv_get_trc_function_from_trc
00000000004b95c8 T _avpriv_h264_has_num_reorder_frames
0000000000461a64 T _avpriv_init_elbg
00000000009a59b4 T _avpriv_init_lls
00000000007570c8 T _avpriv_io_delete
0000000000757028 T _avpriv_io_move
0000000000bab1fd S _avpriv_mjpeg_bits_ac_chrominance
0000000000bab14a S _avpriv_mjpeg_bits_ac_luminance
0000000000bab139 S _avpriv_mjpeg_bits_dc_chrominance
0000000000bab11c S _avpriv_mjpeg_bits_dc_luminance
0000000000bab20e S _avpriv_mjpeg_val_ac_chrominance
0000000000bab15b S _avpriv_mjpeg_val_ac_luminance
0000000000bab12d S _avpriv_mjpeg_val_dc
0000000000becf34 S _avpriv_mpa_bitrate_tab
0000000000becfe8 S _avpriv_mpa_freq_tab
000000000059d46c T _avpriv_mpeg4audio_get_config
000000000059d4ec T _avpriv_mpeg4audio_get_config2
0000000000bebf70 S _avpriv_mpeg4audio_sample_rates
00000000005adf2c T _avpriv_mpegaudio_decode_header
00000000007d4944 T _avpriv_mpegts_parse_close
00000000007d3d1c T _avpriv_mpegts_parse_open
00000000007d43e4 T _avpriv_mpegts_parse_packet
0000000000840ea4 T _avpriv_new_chapter
00000000001f9c08 T _avpriv_open
00000000003d45b8 T _avpriv_packet_list_free
00000000003d4558 T _avpriv_packet_list_get
00000000003d44b8 T _avpriv_packet_list_put
0000000000c3f910 S _avpriv_pix_fmt_bps_avi
0000000000c3f960 S _avpriv_pix_fmt_bps_mov
0000000000740270 T _avpriv_register_devices
00000000001ff00c T _avpriv_report_missing_feature
00000000001fef90 T _avpriv_request_sample
00000000001fa0f8 T _avpriv_scalarproduct_float_c
0000000000840cf8 T _avpriv_set_pts_info
00000000001fd2d0 T _avpriv_set_systematic_pal2
0000000000209090 T _avpriv_slicethread_create
0000000000209458 T _avpriv_slicethread_execute
0000000000209344 T _avpriv_slicethread_free
00000000001fe420 T _avpriv_solve_lls
0000000000736024 T _avpriv_split_xiph_headers
00000000006531a0 T _avpriv_tak_parse_streaminfo
00000000001f9c94 T _avpriv_tempfile
000000000066a274 T _avpriv_toupper4
0000000000acd600 S _avpriv_vga16_font
0000000000668e54 T _avsubtitle_free
0000000000215cb4 T _avutil_configuration
0000000000215cc0 T _avutil_license
0000000000215c54 T _avutil_version
0000000000034b80 T _calculateDetentHeight
00000000000ad0e4 T _callbackBlockFunction
00000000000acd30 T _callbackDataRemove
00000000000acb40 T _callbackNotify
00000000000acb04 T _callbackWait
00000000014abec8 S _canMarkStoryAsSeen
00000000000ace50 T _cancelRequested
0000000000089348 T _cancel_operation
0000000000096434 T _check_filter_outputs
00000000000878d8 T _check_stream_specifier
000000000009cec8 T _check_streamcopy_filters
0000000000099834 T _choose_decoder
000000000009b8dc T _choose_encoder
00000000000951d0 T _choose_pixel_fmt
0000000000095304 T _choose_sample_fmt
0000000000f3c098 S _codec_opts
00000000000964e0 T _configure_filtergraph
0000000000095ad8 T _configure_output_filter
0000000000ef207c D _configuredLogLevel
000000000009ee08 T _copy_chapters
0000000000f3c590 S _copy_tb
0000000000f3c560 S _copy_ts
0000000000f3c308 S _copy_ts_first_pts
0000000000f3c770 S _copy_unknown_streams
000000000000850c T _createDirectoryIfNotExists
0000000000f3c3b0 S _current_time
0000000000a0c74c T _dav1d_close
000000000098ab14 T _dav1d_data_create
000000000098ab20 T _dav1d_data_unref
000000000098ab18 T _dav1d_data_wrap
000000000098ab1c T _dav1d_data_wrap_user_data
0000000000a0bc8c T _dav1d_default_settings
000000000098a960 T _dav1d_flush
000000000098a628 T _dav1d_get_picture
0000000000a0bccc T _dav1d_open
000000000098a2bc T _dav1d_parse_sequence_header
000000000098ab10 T _dav1d_picture_unref
000000000098a4a4 T _dav1d_send_data
0000000000a0c798 T _dav1d_set_cpu_flags_mask
0000000000a0bc80 T _dav1d_version
0000000000f3c5a8 S _debug_ts
0000000000f3c3c8 S _decode_error_stat
0000000000088f78 T _decode_interrupt_cb
000000000179f0d8 S _deinterleaveBytes
0000000000f3c500 S _do_benchmark
0000000000f3c518 S _do_benchmark_all
0000000000f3c800 S _do_bitexact
0000000000f3c818 S _do_count_frames
0000000000f3c830 S _do_count_packets
0000000000f3c4e8 S _do_deinterlace
0000000000f3c530 S _do_hex_dump
0000000000f3c548 S _do_pkt_dump
0000000000f3c728 S _do_psnr
0000000000f3c848 S _do_read_frames
0000000000f3c860 S _do_read_packets
0000000000f3c9e0 S _do_show_chapter_tags
0000000000f3c878 S _do_show_chapters
0000000000f3c938 S _do_show_data
0000000000f3c890 S _do_show_error
0000000000f3c8a8 S _do_show_format
0000000000f3c9f8 S _do_show_format_tags
0000000000f3ca10 S _do_show_frame_tags
0000000000f3c8c0 S _do_show_frames
0000000000f3c968 S _do_show_library_versions
0000000000f3c9c8 S _do_show_log
0000000000f3ca58 S _do_show_packet_tags
0000000000f3c8d8 S _do_show_packets
0000000000f3c9b0 S _do_show_pixel_format_components
0000000000f3c998 S _do_show_pixel_format_flags
0000000000f3c980 S _do_show_pixel_formats
0000000000f3ca28 S _do_show_program_tags
0000000000f3c950 S _do_show_program_version
0000000000f3c8f0 S _do_show_programs
0000000000f3c920 S _do_show_stream_disposition
0000000000f3ca40 S _do_show_stream_tags
0000000000f3c908 S _do_show_streams
0000000000f3c458 S _dts_delta_threshold
0000000000f3c470 S _dts_error_threshold
000000000009abe4 T _dump_attachment
0000000000f3c140 S _dup_warning
0000000000f3cce0 S _ex_buf__
0000000000f3ccc8 S _executionId
00000000014abee8 S _executionIdCounter
00000000014abef0 S _executions
00000000014abef8 S _executionsLock
0000000000f3c5c0 S _exit_on_error
0000000000083efc T _exit_program
00000000014abec0 S _fakeGroupContainerURL
0000000000ccd2cc S _ff_DSATTRIB_TRANSPORT_PROPERTIES
0000000000ccd1ac S _ff_SBE2_STREAM_DESC_EVENT
0000000000f25f00 D _ff_a64_muxer
0000000000f005f0 D _ff_a64multi5_encoder
0000000000f00500 D _ff_a64multi_encoder
0000000000f26070 D _ff_aa_demuxer
000000000034e1fc T _ff_aac_ac3_parse
0000000000366458 T _ff_aac_adjust_common_ltp
0000000000367ab4 T _ff_aac_adjust_common_pred
0000000000e7ba98 S _ff_aac_adtstoasc_bsf
000000000036784c T _ff_aac_apply_main_pred
0000000000369660 T _ff_aac_apply_tns
0000000000e7c9e0 S _ff_aac_codebook_vector_idx
0000000000e7c988 S _ff_aac_codebook_vector_vals
0000000000e7c930 S _ff_aac_codebook_vectors
0000000000e7bad8 S _ff_aac_coders
0000000000f00720 D _ff_aac_decoder
0000000000f25fc8 D _ff_aac_demuxer
0000000000af9f40 S _ff_aac_eld_window_480
0000000000afbb60 S _ff_aac_eld_window_480_fixed
0000000000af6340 S _ff_aac_eld_window_512
0000000000af8140 S _ff_aac_eld_window_512_fixed
000000000036606c T _ff_aac_encode_ltp_info
0000000000368420 T _ff_aac_encode_main_pred
00000000003693f0 T _ff_aac_encode_tns_info
0000000000f00a10 D _ff_aac_encoder
0000000000f00910 D _ff_aac_fixed_decoder
00000000009c04d0 T _ff_aac_float_common_init
00000000003647fc T _ff_aac_is_encoding_err
00000000016b1380 S _ff_aac_kbd_long_1024
00000000016b2380 S _ff_aac_kbd_short_128
0000000000f00810 D _ff_aac_latm_decoder
0000000000f103e0 D _ff_aac_latm_parser
000000000036619c T _ff_aac_ltp_insert_new_frame
0000000000af26e0 S _ff_aac_num_swb_1024
0000000000af2721 S _ff_aac_num_swb_120
0000000000af2714 S _ff_aac_num_swb_128
0000000000af2707 S _ff_aac_num_swb_480
0000000000af26fa S _ff_aac_num_swb_512
0000000000af26ed S _ff_aac_num_swb_960
0000000000f006e0 D _ff_aac_parser
00000000016b2580 S _ff_aac_pow2sf_tab
00000000016b2c30 S _ff_aac_pow34sf_tab
0000000000af272e S _ff_aac_pred_sfb_max
0000000000e7c858 S _ff_aac_psy_model
00000000009c0104 T _ff_aac_sbr_ctx_close
00000000009c04a4 T _ff_aac_sbr_ctx_close_fixed
00000000009c0030 T _ff_aac_sbr_ctx_init
00000000009c03d0 T _ff_aac_sbr_ctx_init_fixed
00000000009bfd90 T _ff_aac_sbr_init
00000000009c0130 T _ff_aac_sbr_init_fixed
0000000000af2920 S _ff_aac_scalefactor_bits
0000000000af273c S _ff_aac_scalefactor_code
0000000000364ca8 T _ff_aac_search_for_is
00000000003664ec T _ff_aac_search_for_ltp
0000000000367d5c T _ff_aac_search_for_pred
000000000036988c T _ff_aac_search_for_tns
0000000000e7c8d8 S _ff_aac_spectral_bits
0000000000e7c880 S _ff_aac_spectral_codes
0000000000af3826 S _ff_aac_spectral_sizes
0000000000e7c7f0 S _ff_aac_swb_size_1024
0000000000aeb390 S _ff_aac_swb_size_1024_len
0000000000e7c788 S _ff_aac_swb_size_128
0000000000aeb38c S _ff_aac_swb_size_128_len
000000000037a118 T _ff_aac_tableinit
00000000003662b4 T _ff_aac_update_ltp
0000000000afd7c0 S _ff_aanscales
0000000000f00b30 D _ff_aasc_decoder
0000000000f26118 D _ff_aax_demuxer
00000000003a8294 T _ff_ac3_adjust_frame_size
0000000000afd8c0 S _ff_ac3_band_start_tab
0000000000afdd80 S _ff_ac3_bap_bits
0000000000afe5a2 S _ff_ac3_bap_tab
0000000000afd8f3 S _ff_ac3_bin_to_band_tab
000000000039e69c T _ff_ac3_bit_alloc_calc_mask
000000000039e5e0 T _ff_ac3_bit_alloc_calc_psd
0000000000afe334 S _ff_ac3_bitrate_tab
0000000000afddc0 S _ff_ac3_channel_layouts
0000000000afe24c S _ff_ac3_channels_tab
00000000003a831c T _ff_ac3_compute_coupling_strategy
0000000000afe5f2 S _ff_ac3_db_per_bit_tab
0000000000afe2c4 S _ff_ac3_dec_channel_map
0000000000f00d60 D _ff_ac3_decoder
0000000000f261c0 D _ff_ac3_demuxer
0000000000ec8a78 S _ff_ac3_dynamic_handler
0000000000afe264 S _ff_ac3_enc_channel_map
00000000009c2fa4 T _ff_ac3_encode_close
00000000003a84ec T _ff_ac3_encode_frame_common_end
00000000009c30f8 T _ff_ac3_encode_init
0000000000f01060 D _ff_ac3_encoder
0000000000afe5e6 S _ff_ac3_fast_decay_tab
0000000000afe60a S _ff_ac3_fast_gain_tab
0000000000f00c60 D _ff_ac3_fixed_decoder
00000000003aaac4 T _ff_ac3_fixed_encode_frame
0000000000f00f70 D _ff_ac3_fixed_encoder
00000000003ab5fc T _ff_ac3_float_encode_frame
00000000009c4034 T _ff_ac3_float_encode_init
0000000000afe5fa S _ff_ac3_floor_tab
0000000000afe168 S _ff_ac3_frame_size_tab
0000000000afe476 S _ff_ac3_hearing_threshold_tab
00000000016b32e0 S _ff_ac3_heavy_dynamic_range_tab
0000000000afe371 S _ff_ac3_log_add_tab
0000000000f34f60 D _ff_ac3_muxer
000000000039ea74 T _ff_ac3_parse_header
0000000000f00c20 D _ff_ac3_parser
0000000000afe35a S _ff_ac3_rematrix_band_tab
0000000000afe324 S _ff_ac3_sample_rate_tab
0000000000afe5e2 S _ff_ac3_slow_decay_tab
0000000000afe5ea S _ff_ac3_slow_gain_tab
0000000000afda0c S _ff_ac3_ungroup_3_in_5_bits_tab
00000000003a9edc T _ff_ac3_validate_metadata
00000000003a7d0c T _ff_ac3dsp_downmix
00000000003a7a80 T _ff_ac3dsp_downmix_fixed
00000000009c2f48 T _ff_ac3dsp_init
00000000007ec158 T _ff_accept
0000000000f26310 D _ff_ace_demuxer
00000000003ac3a4 T _ff_acelp_apply_order_2_transfer_function
00000000003ac45c T _ff_acelp_decode_4bit_to_2nd_delay3
00000000003ac494 T _ff_acelp_decode_5_6_bit_to_2nd_delay3
00000000003ac4c0 T _ff_acelp_decode_6bit_to_2nd_delay6
00000000003ac444 T _ff_acelp_decode_8bit_to_1st_delay3
00000000003ac4a4 T _ff_acelp_decode_9bit_to_1st_delay6
00000000003ac554 T _ff_acelp_decode_gain_code
00000000003ac7ac T _ff_acelp_fc_pulse_per_track
00000000003ac42c T _ff_acelp_filter_init
00000000003ac324 T _ff_acelp_high_pass_filter
0000000000afe730 S _ff_acelp_interp_filter
00000000003ac1b0 T _ff_acelp_interpolate
00000000003ac2ac T _ff_acelp_interpolatef
0000000000f0d230 D _ff_acelp_kelvin_decoder
000000000056998c T _ff_acelp_lp_decode
0000000000569564 T _ff_acelp_lsf2lsp
00000000005695b0 T _ff_acelp_lsf2lspd
0000000000569608 T _ff_acelp_lsp2lpc
0000000000569a34 T _ff_acelp_lspd2lpc
000000000056949c T _ff_acelp_reorder_lsf
00000000003ac4d0 T _ff_acelp_update_past_gain
00000000003acb0c T _ff_acelp_vectors_init
00000000003ac89c T _ff_acelp_weighted_vector_sum
0000000000f263b8 D _ff_acm_demuxer
0000000000f26460 D _ff_act_demuxer
00000000003ac908 T _ff_adaptive_gain_control
00000000002796b8 T _ff_add_channel_layout
000000000066a49c T _ff_add_cpb_side_data
00000000002795d0 T _ff_add_format
000000000083c4cc T _ff_add_index_entry
0000000000841924 T _ff_add_param_change
00000000005378c4 T _ff_add_pixels_clamped_c
0000000000f28938 D _ff_adf_demuxer
0000000000f26508 D _ff_adp_demuxer
0000000000f01150 D _ff_adpcm_4xm_decoder
0000000000afec20 S _ff_adpcm_AdaptCoeff1
0000000000afec27 S _ff_adpcm_AdaptCoeff2
0000000000afec00 S _ff_adpcm_AdaptationTable
0000000000f04520 D _ff_adpcm_adx_decoder
0000000000f04610 D _ff_adpcm_adx_encoder
0000000000afec5e S _ff_adpcm_afc_coeffs
0000000000f01240 D _ff_adpcm_afc_decoder
0000000000f01330 D _ff_adpcm_agm_decoder
0000000000f01420 D _ff_adpcm_aica_decoder
0000000000f01510 D _ff_adpcm_argo_decoder
0000000000f03b80 D _ff_adpcm_argo_encoder
00000000003acb2c T _ff_adpcm_argo_expand_nibble
0000000000f01600 D _ff_adpcm_ct_decoder
0000000000f016f0 D _ff_adpcm_dtk_decoder
0000000000f017e0 D _ff_adpcm_ea_decoder
0000000000f018d0 D _ff_adpcm_ea_maxis_xa_decoder
0000000000f019c0 D _ff_adpcm_ea_r1_decoder
0000000000f01ab0 D _ff_adpcm_ea_r2_decoder
0000000000f01ba0 D _ff_adpcm_ea_r3_decoder
0000000000f01c90 D _ff_adpcm_ea_xas_decoder
0000000000f0c940 D _ff_adpcm_g722_decoder
0000000000f0ca30 D _ff_adpcm_g722_encoder
0000000000f0cf20 D _ff_adpcm_g726_decoder
0000000000f0cd40 D _ff_adpcm_g726_encoder
0000000000f0d010 D _ff_adpcm_g726le_decoder
0000000000f0ce30 D _ff_adpcm_g726le_encoder
0000000000f02d70 D _ff_adpcm_ima_alp_decoder
0000000000f03e50 D _ff_adpcm_ima_alp_encoder
0000000000f01d80 D _ff_adpcm_ima_amv_decoder
0000000000f03c70 D _ff_adpcm_ima_amv_encoder
0000000000f01e70 D _ff_adpcm_ima_apc_decoder
0000000000f01f60 D _ff_adpcm_ima_apm_decoder
0000000000f03d60 D _ff_adpcm_ima_apm_encoder
0000000000f02050 D _ff_adpcm_ima_cunning_decoder
0000000000aff09e S _ff_adpcm_ima_cunning_index_table
0000000000aff0a8 S _ff_adpcm_ima_cunning_step_table
0000000000f02140 D _ff_adpcm_ima_dat4_decoder
0000000000f02230 D _ff_adpcm_ima_dk3_decoder
0000000000f02320 D _ff_adpcm_ima_dk4_decoder
0000000000f02410 D _ff_adpcm_ima_ea_eacs_decoder
0000000000f02500 D _ff_adpcm_ima_ea_sead_decoder
0000000000f025f0 D _ff_adpcm_ima_iss_decoder
0000000000f026e0 D _ff_adpcm_ima_moflex_decoder
0000000000f027d0 D _ff_adpcm_ima_mtf_decoder
0000000000f028c0 D _ff_adpcm_ima_oki_decoder
0000000000f029b0 D _ff_adpcm_ima_qt_decoder
0000000000f03f40 D _ff_adpcm_ima_qt_encoder
0000000000f02aa0 D _ff_adpcm_ima_rad_decoder
0000000000f02c80 D _ff_adpcm_ima_smjpeg_decoder
0000000000f02b90 D _ff_adpcm_ima_ssi_decoder
0000000000f04030 D _ff_adpcm_ima_ssi_encoder
0000000000f02e60 D _ff_adpcm_ima_wav_decoder
0000000000f04120 D _ff_adpcm_ima_wav_encoder
0000000000f02f50 D _ff_adpcm_ima_ws_decoder
0000000000afeab0 S _ff_adpcm_index_table
0000000000e7eac0 S _ff_adpcm_index_tables
0000000000f03040 D _ff_adpcm_ms_decoder
0000000000f04210 D _ff_adpcm_ms_encoder
0000000000f03130 D _ff_adpcm_mtaf_decoder
0000000000afec9e S _ff_adpcm_mtaf_stepsize
0000000000afeb9e S _ff_adpcm_oki_step_table
0000000000f03220 D _ff_adpcm_psx_decoder
0000000000f03310 D _ff_adpcm_sbpro_2_decoder
0000000000f03400 D _ff_adpcm_sbpro_3_decoder
0000000000f034f0 D _ff_adpcm_sbpro_4_decoder
0000000000afeaec S _ff_adpcm_step_table
0000000000f035e0 D _ff_adpcm_swf_decoder
0000000000f04300 D _ff_adpcm_swf_encoder
0000000000f037c0 D _ff_adpcm_thp_decoder
0000000000f036d0 D _ff_adpcm_thp_le_decoder
0000000000f22880 D _ff_adpcm_vima_decoder
0000000000f038b0 D _ff_adpcm_xa_decoder
0000000000f039a0 D _ff_adpcm_yamaha_decoder
0000000000afec4e S _ff_adpcm_yamaha_difflookup
0000000000f043f0 D _ff_adpcm_yamaha_encoder
0000000000afec2e S _ff_adpcm_yamaha_indexscale
0000000000f03a90 D _ff_adpcm_zork_decoder
0000000000f265b0 D _ff_ads_demuxer
00000000003b24bc T _ff_adts_header_parse
0000000000f26658 D _ff_adts_muxer
00000000003b272c T _ff_adx_calculate_coeffs
00000000003b27d0 T _ff_adx_decode_header
0000000000f26720 D _ff_adx_demuxer
0000000000f35028 D _ff_adx_muxer
0000000000f044e0 D _ff_adx_parser
0000000000f267c8 D _ff_aea_demuxer
0000000000ef6dd0 D _ff_af_abench
0000000000ef5b30 D _ff_af_acompressor
0000000000ef31b0 D _ff_af_acontrast
0000000000ef3230 D _ff_af_acopy
0000000000ef3830 D _ff_af_acrossfade
0000000000ef32b0 D _ff_af_acrossover
0000000000ef3330 D _ff_af_acrusher
0000000000ef6ed0 D _ff_af_acue
0000000000ef33b0 D _ff_af_adeclick
0000000000ef3430 D _ff_af_adeclip
0000000000ef34b0 D _ff_af_adelay
0000000000ef3530 D _ff_af_adenorm
0000000000ef35b0 D _ff_af_aderivative
0000000000ef36b0 D _ff_af_aecho
0000000000ef3730 D _ff_af_aemphasis
0000000000ef3130 D _ff_af_aeval
0000000000ef37b0 D _ff_af_afade
0000000000ef38b0 D _ff_af_afftdn
0000000000ef3930 D _ff_af_afftfilt
0000000000ef7c50 D _ff_af_afifo
0000000000ef39b0 D _ff_af_afir
0000000000ef3a30 D _ff_af_aformat
0000000000ef3ab0 D _ff_af_afreqshift
0000000000ef3bb0 D _ff_af_agate
0000000000ef3cb0 D _ff_af_aiir
0000000000ef3630 D _ff_af_aintegral
0000000000ef7250 D _ff_af_ainterleave
0000000000ef3d30 D _ff_af_alimiter
0000000000ef4e30 D _ff_af_allpass
0000000000ef72d0 D _ff_af_aloop
0000000000ef3db0 D _ff_af_amerge
0000000000ef73d0 D _ff_af_ametadata
0000000000ef3e30 D _ff_af_amix
0000000000ef3eb0 D _ff_af_amultiply
0000000000ef3f30 D _ff_af_anequalizer
0000000000ef3fb0 D _ff_af_anlmdn
0000000000ef4030 D _ff_af_anlms
0000000000ef40b0 D _ff_af_anull
0000000000ef4130 D _ff_af_apad
0000000000ef74d0 D _ff_af_aperms
0000000000ef41b0 D _ff_af_aphaser
0000000000ef3b30 D _ff_af_aphaseshift
0000000000ef4230 D _ff_af_apulsator
0000000000ef7650 D _ff_af_arealtime
0000000000ef42b0 D _ff_af_aresample
0000000000ef7750 D _ff_af_areverse
0000000000ef4330 D _ff_af_arnndn
0000000000ef77d0 D _ff_af_aselect
0000000000ef7950 D _ff_af_asendcmd
0000000000ef43b0 D _ff_af_asetnsamples
0000000000ef7d50 D _ff_af_asetpts
0000000000ef4430 D _ff_af_asetrate
0000000000ef7e50 D _ff_af_asettb
0000000000ef44b0 D _ff_af_ashowinfo
0000000000ef79d0 D _ff_af_asidedata
0000000000ef4530 D _ff_af_asoftclip
0000000000ef7f50 D _ff_af_asplit
0000000000ef45b0 D _ff_af_astats
0000000000ef7b50 D _ff_af_astreamselect
0000000000ef4630 D _ff_af_asubboost
0000000000ef4730 D _ff_af_asubcut
0000000000ef46b0 D _ff_af_asupercut
0000000000ef47b0 D _ff_af_asuperpass
0000000000ef4830 D _ff_af_asuperstop
0000000000ef48b0 D _ff_af_atempo
0000000000ef8150 D _ff_af_atrim
0000000000ef4930 D _ff_af_axcorrelate
0000000000ef4c30 D _ff_af_bandpass
0000000000ef4cb0 D _ff_af_bandreject
0000000000ef4a30 D _ff_af_bass
0000000000ef4eb0 D _ff_af_biquad
0000000000ef4f30 D _ff_af_channelmap
0000000000ef4fb0 D _ff_af_channelsplit
0000000000ef5030 D _ff_af_chorus
0000000000ef50b0 D _ff_af_compand
0000000000ef5130 D _ff_af_compensationdelay
0000000000ef51b0 D _ff_af_crossfeed
0000000000ef5230 D _ff_af_crystalizer
0000000000ef52b0 D _ff_af_dcshift
0000000000ef5330 D _ff_af_deesser
0000000000ef53b0 D _ff_af_drmeter
0000000000ef5430 D _ff_af_dynaudnorm
0000000000ef54b0 D _ff_af_earwax
0000000000ef7050 D _ff_af_ebur128
0000000000ef49b0 D _ff_af_equalizer
0000000000ef5530 D _ff_af_extrastereo
0000000000ef55b0 D _ff_af_firequalizer
0000000000ef5630 D _ff_af_flanger
0000000000ef56b0 D _ff_af_haas
0000000000ef5730 D _ff_af_hdcd
0000000000ef57b0 D _ff_af_headphone
0000000000ef4db0 D _ff_af_highpass
0000000000ef4bb0 D _ff_af_highshelf
0000000000ef5830 D _ff_af_join
0000000000ef58b0 D _ff_af_loudnorm
0000000000ef4d30 D _ff_af_lowpass
0000000000ef4ab0 D _ff_af_lowshelf
0000000000ef5930 D _ff_af_mcompand
0000000000ef59b0 D _ff_af_pan
00000000003d0170 T _ff_af_queue_add
00000000003d0128 T _ff_af_queue_close
00000000009c7e20 T _ff_af_queue_init
00000000003d0264 T _ff_af_queue_remove
0000000000ef5a30 D _ff_af_replaygain
0000000000ef5ab0 D _ff_af_sidechaincompress
0000000000ef3c30 D _ff_af_sidechaingate
0000000000ef5bb0 D _ff_af_silencedetect
0000000000ef5c30 D _ff_af_silenceremove
0000000000ef5cb0 D _ff_af_speechnorm
0000000000ef5d30 D _ff_af_stereotools
0000000000ef5db0 D _ff_af_stereowiden
0000000000ef5e30 D _ff_af_superequalizer
0000000000ef5eb0 D _ff_af_surround
0000000000ef4b30 D _ff_af_treble
0000000000ef5f30 D _ff_af_tremolo
0000000000ef5fb0 D _ff_af_vibrato
0000000000ef6030 D _ff_af_volume
0000000000ef60b0 D _ff_af_volumedetect
0000000000f26870 D _ff_afc_demuxer
0000000000220e54 T _ff_afir_init
0000000000f04700 D _ff_agm_decoder
0000000000b5a7ba S _ff_aic_dc_scale_table
0000000000f047f0 D _ff_aic_decoder
0000000000f26918 D _ff_aiff_demuxer
0000000000f269c0 D _ff_aiff_muxer
0000000000f26a88 D _ff_aix_demuxer
0000000000aff4e0 S _ff_alac_channel_elements
0000000000aff458 S _ff_alac_channel_layout_offsets
0000000000aff498 S _ff_alac_channel_layouts
0000000000f048e0 D _ff_alac_decoder
0000000000f049d0 D _ff_alac_encoder
00000000009c4e98 T _ff_alacdsp_init
0000000000f04ac0 D _ff_alias_pix_decoder
0000000000f04bb0 D _ff_alias_pix_encoder
00000000002799d0 T _ff_all_channel_counts
00000000002799b4 T _ff_all_channel_layouts
00000000002797a0 T _ff_all_formats
00000000002799ac T _ff_all_samplerates
00000000003cfe64 T _ff_alloc_a53_sei
0000000000839ea4 T _ff_alloc_dir_entry
00000000005f8ac0 T _ff_alloc_entries
000000000083d934 T _ff_alloc_extradata
0000000000855cac T _ff_alloc_input_device_context
00000000004627c8 T _ff_alloc_packet2
00000000005b141c T _ff_alloc_picture
000000000066a8d4 T _ff_alloc_timecode_sei
0000000000f26b80 D _ff_alp_demuxer
0000000000f26c28 D _ff_alp_muxer
0000000000f04cc0 D _ff_als_decoder
0000000000bef184 S _ff_alternate_horizontal_scan
0000000000bef1c4 S _ff_alternate_vertical_scan
0000000000807c1c T _ff_amf_get_field_value
0000000000806f7c T _ff_amf_get_string
0000000000808288 T _ff_amf_match_string
0000000000806eb0 T _ff_amf_read_bool
0000000000807068 T _ff_amf_read_null
0000000000806f20 T _ff_amf_read_number
0000000000807038 T _ff_amf_read_string
0000000000807938 T _ff_amf_tag_size
0000000000806c78 T _ff_amf_write_bool
0000000000806e20 T _ff_amf_write_field_name
0000000000806e00 T _ff_amf_write_null
0000000000806c98 T _ff_amf_write_number
0000000000806e84 T _ff_amf_write_object_end
0000000000806e10 T _ff_amf_write_object_start
0000000000806cc8 T _ff_amf_write_string
0000000000806d40 T _ff_amf_write_string2
0000000000f26cf0 D _ff_amr_demuxer
0000000000f26ee8 D _ff_amr_muxer
0000000000ec8ac0 S _ff_amr_nb_dynamic_handler
00000000003ac5f4 T _ff_amr_set_fixed_gain
0000000000ec8b08 S _ff_amr_wb_dynamic_handler
0000000000f04db0 D _ff_amrnb_decoder
0000000000f26d98 D _ff_amrnb_demuxer
0000000000f04ea0 D _ff_amrwb_decoder
0000000000f26e40 D _ff_amrwb_demuxer
0000000000569788 T _ff_amrwb_lsp2lpc
0000000000f1efc0 D _ff_amv_decoder
0000000000f11910 D _ff_amv_encoder
0000000000f26fb0 D _ff_amv_muxer
000000000022a984 T _ff_anlmdn_init
0000000000f04f90 D _ff_anm_decoder
0000000000f27078 D _ff_anm_demuxer
0000000000f05080 D _ff_ansi_decoder
0000000000f27120 D _ff_apc_demuxer
0000000000f05170 D _ff_ape_decoder
0000000000f271c8 D _ff_ape_demuxer
00000000007421cc T _ff_ape_parse_tag
0000000000742558 T _ff_ape_write_tag
0000000000f27270 D _ff_apm_demuxer
0000000000f27318 D _ff_apm_muxer
0000000000f273e0 D _ff_apng_demuxer
0000000000f27488 D _ff_apng_muxer
000000000060fac0 T _ff_apply_motion_4x4
000000000060fc34 T _ff_apply_motion_8x8
000000000060f8d0 T _ff_apply_vector_2x2
000000000060f95c T _ff_apply_vector_4x4
0000000000f05260 D _ff_aptx_decoder
0000000000f27550 D _ff_aptx_demuxer
0000000000f05440 D _ff_aptx_encoder
00000000003c1cd0 T _ff_aptx_generate_dither
0000000000f05350 D _ff_aptx_hd_decoder
0000000000f275f8 D _ff_aptx_hd_demuxer
0000000000f05530 D _ff_aptx_hd_encoder
0000000000f351b8 D _ff_aptx_hd_muxer
00000000009c6258 T _ff_aptx_init
00000000003c1d48 T _ff_aptx_invert_quantize_and_prediction
0000000000f350f0 D _ff_aptx_muxer
0000000000e802a0 S _ff_aptx_quant_tables
0000000000f276a0 D _ff_aqtitle_demuxer
0000000000f05620 D _ff_arbc_decoder
0000000000f27748 D _ff_argo_asf_demuxer
00000000007441d8 T _ff_argo_asf_fill_stream
0000000000f277f0 D _ff_argo_asf_muxer
00000000007441a4 T _ff_argo_asf_parse_chunk_header
0000000000744124 T _ff_argo_asf_parse_file_header
0000000000744174 T _ff_argo_asf_validate_file_header
0000000000f278b8 D _ff_argo_brp_demuxer
0000000000f05710 D _ff_argo_decoder
0000000000cc2620 S _ff_asf_audio_conceal_none
0000000000cc2630 S _ff_asf_audio_conceal_spread
0000000000cc2610 S _ff_asf_audio_stream
0000000000cc26a0 S _ff_asf_codec_comment1_header
0000000000cc2690 S _ff_asf_codec_comment_header
0000000000cc2670 S _ff_asf_command_stream
0000000000cc2680 S _ff_asf_comment_header
0000000000cc2780 S _ff_asf_content_encryption
0000000000cc26b0 S _ff_asf_data_header
0000000000f27960 D _ff_asf_demuxer
0000000000cc27a0 S _ff_asf_digital_signature
0000000000cc2790 S _ff_asf_ext_content_encryption
0000000000cc2710 S _ff_asf_ext_stream_audio_stream
0000000000cc2700 S _ff_asf_ext_stream_embed_stream_header
0000000000cc2600 S _ff_asf_ext_stream_header
0000000000cc26e0 S _ff_asf_extended_content_header
0000000000cc27b0 S _ff_asf_extended_stream_properties_object
0000000000cc25e0 S _ff_asf_file_header
0000000000cc27c0 S _ff_asf_group_mutual_exclusion_object
0000000000cc26c0 S _ff_asf_head1_guid
0000000000cc26d0 S _ff_asf_head2_guid
0000000000cc25d0 S _ff_asf_header
0000000000cc2650 S _ff_asf_jfif_media
0000000000cc2770 S _ff_asf_language_guid
0000000000cc2740 S _ff_asf_marker_header
0000000000eb45e8 S _ff_asf_metadata_conv
0000000000cc2720 S _ff_asf_metadata_header
0000000000cc2730 S _ff_asf_metadata_library_header
0000000000cc27d0 S _ff_asf_mutex_language
0000000000f27ab0 D _ff_asf_muxer
0000000000cc2760 S _ff_asf_my_guid
0000000000f27a08 D _ff_asf_o_demuxer
0000000000cc2750 S _ff_asf_reserved_4
0000000000cc26f0 S _ff_asf_simple_index_header
0000000000cc25f0 S _ff_asf_stream_header
0000000000f27b78 D _ff_asf_stream_muxer
0000000000cc2660 S _ff_asf_video_conceal_none
0000000000cc2640 S _ff_asf_video_stream
0000000000745210 T _ff_asfcrypt_dec
0000000000ef6bc0 D _ff_asink_abuffer
0000000000ef6140 D _ff_asink_anullsink
0000000000ef6cc0 D _ff_asrc_abuffer
0000000000ef30b0 D _ff_asrc_aevalsrc
0000000000ef61c0 D _ff_asrc_afirsrc
0000000000ef6240 D _ff_asrc_anoisesrc
0000000000ef62c0 D _ff_asrc_anullsrc
0000000000ef6340 D _ff_asrc_hilbert
0000000000ef63c0 D _ff_asrc_sinc
0000000000ef6440 D _ff_asrc_sine
00000000003c4a44 T _ff_ass_add_rect
00000000003c4b18 T _ff_ass_bprint_text_event
0000000000f058f0 D _ff_ass_decoder
00000000003c4b04 T _ff_ass_decoder_flush
0000000000f27c40 D _ff_ass_demuxer
0000000000f05ad0 D _ff_ass_encoder
00000000003c4fd8 T _ff_ass_free_dialog
00000000003c49f4 T _ff_ass_get_dialog
0000000000f27ce8 D _ff_ass_muxer
00000000003c4c2c T _ff_ass_split
00000000003c4e48 T _ff_ass_split_dialog
00000000003c5028 T _ff_ass_split_dialog2
00000000003c4de8 T _ff_ass_split_free
00000000003c512c T _ff_ass_split_override_codes
00000000003c57d0 T _ff_ass_style_get
00000000003c4960 T _ff_ass_subtitle_header
00000000003c49b0 T _ff_ass_subtitle_header_default
00000000003c48c0 T _ff_ass_subtitle_header_full
0000000000f27db0 D _ff_ast_demuxer
0000000000f27e58 D _ff_ast_muxer
0000000000f05bc0 D _ff_asv1_decoder
0000000000f05db0 D _ff_asv1_encoder
0000000000f05cb0 D _ff_asv2_decoder
0000000000f05ea0 D _ff_asv2_encoder
0000000000b0d580 S _ff_asv2_level_tab
0000000000b0d560 S _ff_asv_ac_ccp_tab
0000000000b0d520 S _ff_asv_ccp_tab
00000000009c6584 T _ff_asv_common_init
0000000000b0d550 S _ff_asv_dc_ccp_tab
0000000000b0d542 S _ff_asv_level_tab
0000000000b0d4e0 S _ff_asv_scantab
0000000000eb5340 S _ff_async_protocol
0000000000f05fa0 D _ff_atrac1_decoder
0000000000f06090 D _ff_atrac3_decoder
0000000000f06180 D _ff_atrac3al_decoder
00000000003c93c4 T _ff_atrac3p_decode_channel_unit
0000000000f06280 D _ff_atrac3p_decoder
00000000003cd518 T _ff_atrac3p_generate_tones
00000000003cdc94 T _ff_atrac3p_imdct
00000000009c77b4 T _ff_atrac3p_init_dsp_static
00000000009c77a0 T _ff_atrac3p_init_imdct
00000000009c71b4 T _ff_atrac3p_init_vlcs
00000000003cdda0 T _ff_atrac3p_ipqf
0000000000b11360 S _ff_atrac3p_mant_tab
00000000003cda04 T _ff_atrac3p_power_compensation
0000000000b1121c S _ff_atrac3p_qu_to_spec_pos
0000000000b11260 S _ff_atrac3p_sf_tab
0000000000f06370 D _ff_atrac3pal_decoder
0000000000f06470 D _ff_atrac9_decoder
00000000003c7640 T _ff_atrac_gain_compensation
00000000009c69c0 T _ff_atrac_generate_tables
00000000009c6a64 T _ff_atrac_init_gain_compensation
00000000003c7788 T _ff_atrac_iqmf
00000000016b36e0 S _ff_atrac_sf_table
0000000000438d8c T _ff_attach_decode_data
0000000000f27f20 D _ff_au_demuxer
0000000000f27fc8 D _ff_au_muxer
00000000009c7e34 T _ff_audiodsp_init
0000000000f06570 D _ff_aura2_decoder
0000000000f08c80 D _ff_aura_decoder
0000000000f066a0 D _ff_av1_decoder
0000000000f28090 D _ff_av1_demuxer
00000000003d13ac T _ff_av1_extract_obu
000000000074e7f4 T _ff_av1_filter_obus
000000000074e910 T _ff_av1_filter_obus_buf
0000000000e80b80 S _ff_av1_frame_merge_bsf
0000000000e80bc0 S _ff_av1_frame_split_bsf
0000000000e80c58 S _ff_av1_metadata_bsf
00000000003d15ac T _ff_av1_packet_split
00000000003d183c T _ff_av1_packet_uninit
000000000074e9f4 T _ff_av1_parse_seq_header
0000000000f06660 D _ff_av1_parser
0000000000750808 T _ff_avc_decode_sps
0000000000750280 T _ff_avc_find_startcode
0000000000750cc0 T _ff_avc_mp4_find_startcode
00000000007503c8 T _ff_avc_parse_nal_units
0000000000750464 T _ff_avc_parse_nal_units_buf
0000000000750b94 T _ff_avc_write_annexb_extradata
0000000000ef64c0 D _ff_avf_abitscope
0000000000ef6fd0 D _ff_avf_adrawgraph
0000000000ef7150 D _ff_avf_agraphmonitor
0000000000ef6540 D _ff_avf_ahistogram
0000000000ef65c0 D _ff_avf_aphasemeter
0000000000ef6640 D _ff_avf_avectorscope
0000000000ef66c0 D _ff_avf_concat
0000000000ef6740 D _ff_avf_showcqt
0000000000ef67c0 D _ff_avf_showfreqs
0000000000ef6840 D _ff_avf_showspatial
0000000000ef68c0 D _ff_avf_showspectrum
0000000000ef6940 D _ff_avf_showspectrumpic
0000000000ef69c0 D _ff_avf_showvolume
0000000000ef6a40 D _ff_avf_showwaves
0000000000ef6ac0 D _ff_avf_showwavespic
0000000000261ba4 T _ff_avfilter_graph_update_heap
000000000025df7c T _ff_avfilter_link_set_in_status
000000000025e02c T _ff_avfilter_link_set_out_status
0000000000603714 T _ff_avg_dirac_pixels16_c
0000000000603768 T _ff_avg_dirac_pixels16_l2_c
00000000006037c4 T _ff_avg_dirac_pixels16_l4_c
0000000000603720 T _ff_avg_dirac_pixels32_c
0000000000603778 T _ff_avg_dirac_pixels32_l2_c
00000000006037dc T _ff_avg_dirac_pixels32_l4_c
0000000000603708 T _ff_avg_dirac_pixels8_c
0000000000603758 T _ff_avg_dirac_pixels8_l2_c
00000000006037ac T _ff_avg_dirac_pixels8_l4_c
000000000037b2d8 T _ff_avg_h264_chroma_mc2_neon
000000000037b074 T _ff_avg_h264_chroma_mc4_neon
000000000037ad40 T _ff_avg_h264_chroma_mc8_neon
0000000000380a84 T _ff_avg_h264_qpel16_mc00_neon
0000000000380618 T _ff_avg_h264_qpel16_mc01_neon
00000000003806f0 T _ff_avg_h264_qpel16_mc02_neon
00000000003807a0 T _ff_avg_h264_qpel16_mc03_neon
00000000003805d0 T _ff_avg_h264_qpel16_mc10_neon
000000000038063c T _ff_avg_h264_qpel16_mc11_neon
0000000000380710 T _ff_avg_h264_qpel16_mc12_neon
00000000003807ac T _ff_avg_h264_qpel16_mc13_neon
00000000003805e8 T _ff_avg_h264_qpel16_mc20_neon
000000000038068c T _ff_avg_h264_qpel16_mc21_neon
0000000000380760 T _ff_avg_h264_qpel16_mc22_neon
00000000003807c0 T _ff_avg_h264_qpel16_mc23_neon
0000000000380600 T _ff_avg_h264_qpel16_mc30_neon
00000000003806d8 T _ff_avg_h264_qpel16_mc31_neon
000000000038078c T _ff_avg_h264_qpel16_mc32_neon
00000000003807d4 T _ff_avg_h264_qpel16_mc33_neon
0000000000381010 T _ff_avg_h264_qpel8_mc00_neon
00000000003801d0 T _ff_avg_h264_qpel8_mc01_neon
00000000003802b8 T _ff_avg_h264_qpel8_mc02_neon
0000000000380360 T _ff_avg_h264_qpel8_mc03_neon
000000000038017c T _ff_avg_h264_qpel8_mc10_neon
00000000003801f4 T _ff_avg_h264_qpel8_mc11_neon
00000000003802d8 T _ff_avg_h264_qpel8_mc12_neon
000000000038036c T _ff_avg_h264_qpel8_mc13_neon
0000000000380198 T _ff_avg_h264_qpel8_mc20_neon
0000000000380248 T _ff_avg_h264_qpel8_mc21_neon
000000000038032c T _ff_avg_h264_qpel8_mc22_neon
0000000000380380 T _ff_avg_h264_qpel8_mc23_neon
00000000003801b4 T _ff_avg_h264_qpel8_mc30_neon
00000000003802a0 T _ff_avg_h264_qpel8_mc31_neon
000000000038034c T _ff_avg_h264_qpel8_mc32_neon
0000000000380394 T _ff_avg_h264_qpel8_mc33_neon
0000000000380a88 T _ff_avg_pixels16_neon
0000000000380ad8 T _ff_avg_pixels16_x2_neon
0000000000380b18 T _ff_avg_pixels16_x2_no_rnd_neon
0000000000380c30 T _ff_avg_pixels16_xy2_neon
0000000000380d00 T _ff_avg_pixels16_xy2_no_rnd_neon
0000000000380b58 T _ff_avg_pixels16_y2_neon
0000000000380bc4 T _ff_avg_pixels16_y2_no_rnd_neon
00000000006035cc T _ff_avg_pixels16x16_c
0000000000381014 T _ff_avg_pixels8_neon
0000000000381064 T _ff_avg_pixels8_x2_neon
0000000000381110 T _ff_avg_pixels8_xy2_neon
00000000003810a4 T _ff_avg_pixels8_y2_neon
000000000060352c T _ff_avg_pixels8x8_c
0000000000603104 T _ff_avg_qpel16_mc11_old_c
000000000060339c T _ff_avg_qpel16_mc12_old_c
0000000000603274 T _ff_avg_qpel16_mc13_old_c
00000000006031e0 T _ff_avg_qpel16_mc31_old_c
0000000000603464 T _ff_avg_qpel16_mc32_old_c
0000000000603308 T _ff_avg_qpel16_mc33_old_c
0000000000602be8 T _ff_avg_qpel8_mc11_old_c
0000000000602f74 T _ff_avg_qpel8_mc12_old_c
0000000000602e5c T _ff_avg_qpel8_mc13_old_c
0000000000602dcc T _ff_avg_qpel8_mc31_old_c
0000000000603080 T _ff_avg_qpel8_mc32_old_c
0000000000602ee8 T _ff_avg_qpel8_mc33_old_c
000000000037b900 T _ff_avg_rv40_chroma_mc4_neon
000000000037b554 T _ff_avg_rv40_chroma_mc8_neon
000000000037bfe8 T _ff_avg_vc1_chroma_mc4_neon
000000000037bc7c T _ff_avg_vc1_chroma_mc8_neon
0000000000f281e0 D _ff_avi_demuxer
0000000000f28288 D _ff_avi_muxer
0000000000eb5a10 S _ff_avio_class
0000000000f39090 D _ff_avm2_muxer
0000000000f28350 D _ff_avr_demuxer
0000000000f06790 D _ff_avrn_decoder
0000000000f1c250 D _ff_avrp_decoder
0000000000f1c520 D _ff_avrp_encoder
0000000000f284a0 D _ff_avs2_demuxer
0000000000f35280 D _ff_avs2_muxer
0000000000f06970 D _ff_avs2_parser
0000000000f28548 D _ff_avs3_demuxer
0000000000f069b0 D _ff_avs3_parser
0000000000f06880 D _ff_avs_decoder
0000000000f283f8 D _ff_avs_demuxer
0000000000ef8050 D _ff_avsrc_amovie
0000000000ef7fd0 D _ff_avsrc_movie
0000000000f069f0 D _ff_avui_decoder
0000000000f06ae0 D _ff_avui_encoder
0000000000f21b10 D _ff_ayuv_decoder
0000000000f21cf0 D _ff_ayuv_encoder
0000000000afe894 S _ff_b60_sinc
000000000175168a S _ff_band_index_long
0000000000bed3a0 S _ff_band_size_long
0000000000bed466 S _ff_band_size_short
0000000000f06bd0 D _ff_bethsoftvid_decoder
0000000000f285f0 D _ff_bethsoftvid_demuxer
0000000000f06cc0 D _ff_bfi_decoder
0000000000f28698 D _ff_bfi_demuxer
0000000000f28df0 D _ff_bfstm_demuxer
00000000003d5e40 T _ff_bgmc_decode
00000000003d5e14 T _ff_bgmc_decode_end
00000000003d5da8 T _ff_bgmc_decode_init
00000000009c857c T _ff_bgmc_end
00000000009c84f8 T _ff_bgmc_init
0000000000735094 T _ff_big_add
0000000000735134 T _ff_big_div
00000000007351d0 T _ff_big_mul
0000000000f06db0 D _ff_bink_decoder
0000000000f28740 D _ff_bink_demuxer
0000000000f06f90 D _ff_binkaudio_dct_decoder
0000000000f06ea0 D _ff_binkaudio_rdft_decoder
00000000009c8ba0 T _ff_binkdsp_init
0000000000f07080 D _ff_bintext_decoder
0000000000f287e8 D _ff_bintext_demuxer
0000000000f28a88 D _ff_bit_demuxer
0000000000f28b30 D _ff_bit_muxer
0000000000f07350 D _ff_bitpacked_decoder
000000000037ceac T _ff_biweight_h264_pixels_16_neon
000000000037d2cc T _ff_biweight_h264_pixels_4_neon
000000000037d10c T _ff_biweight_h264_pixels_8_neon
000000000028684c T _ff_blend_init
0000000000270ac8 T _ff_blend_mask
00000000002706e4 T _ff_blend_rectangle
00000000005bbf6c T _ff_block_permute
00000000009c8e0c T _ff_blockdsp_init
0000000000f07440 D _ff_bmp_decoder
0000000000f07570 D _ff_bmp_encoder
0000000000f07530 D _ff_bmp_parser
0000000000f07660 D _ff_bmv_audio_decoder
0000000000f28bf8 D _ff_bmv_demuxer
0000000000f07750 D _ff_bmv_video_decoder
0000000000f28ca0 D _ff_boa_demuxer
00000000002629d0 T _ff_boxblur_eval_filter_params
0000000000842964 T _ff_bprint_to_codecpar_extradata
0000000000f07840 D _ff_brender_pix_decoder
0000000000762ccc T _ff_brktimegm
0000000000f28d48 D _ff_brstm_demuxer
00000000003dae64 T _ff_bsf_child_class_iterate
00000000003dae00 T _ff_bsf_child_class_next
00000000003dce9c T _ff_bsf_get_packet
00000000003dcf08 T _ff_bsf_get_packet_ref
00000000009c8f70 T _ff_bswapdsp_init
000000000060c5cc T _ff_build_rac_states
00000000001f063c T _ff_butterflies_float_neon
0000000000f07930 D _ff_c93_decoder
0000000000f28e98 D _ff_c93_demuxer
0000000000eb5e50 S _ff_cache_protocol
0000000000f28f40 D _ff_caf_demuxer
0000000000f28fe8 D _ff_caf_muxer
00000000002626e0 T _ff_calculate_bounding_box
000000000026d030 T _ff_calculate_operand_data_length
000000000026d008 T _ff_calculate_operand_dims_count
0000000000278d3c T _ff_can_merge_formats
0000000000278f60 T _ff_can_merge_samplerates
00000000003ddf74 T _ff_canopus_parse_info_tag
0000000000b1ad0e S _ff_cavs_chroma_qp
0000000000f07a60 D _ff_cavs_decoder
0000000000b1ad50 S _ff_cavs_dir_mv
00000000009c9168 T _ff_cavs_end
00000000003de0a8 T _ff_cavs_filter
00000000009c8ffc T _ff_cavs_init
00000000003df120 T _ff_cavs_init_mb
00000000003df374 T _ff_cavs_init_pic
00000000003df424 T _ff_cavs_init_top_lines
00000000003deb44 T _ff_cavs_inter
0000000000b1ad58 S _ff_cavs_intra_mv
00000000003de924 T _ff_cavs_load_intra_pred_chroma
00000000003de6f8 T _ff_cavs_load_intra_pred_luma
00000000003dea28 T _ff_cavs_modify_mb_i
00000000003ded48 T _ff_cavs_mv
00000000003df210 T _ff_cavs_next_mb
0000000000b1acf0 S _ff_cavs_partition_flags
00000000009c91f4 T _ff_cavsdsp_init
0000000000f290b0 D _ff_cavsvideo_demuxer
0000000000f35348 D _ff_cavsvideo_muxer
0000000000f07a20 D _ff_cavsvideo_parser
0000000000c26764 S _ff_cb1_base
0000000000c23f64 S _ff_cb1_vects
0000000000c26864 S _ff_cb2_base
0000000000c25364 S _ff_cb2_vects
0000000000b5a260 S _ff_cbpc_b_tab
00000000016b37e0 S _ff_cbrt_tab
00000000016bb7e0 S _ff_cbrt_tab_fixed
00000000009c94b8 T _ff_cbrt_tableinit
00000000009c9608 T _ff_cbrt_tableinit_fixed
0000000000b1bec4 S _ff_cbs_all_codec_ids
00000000003e722c T _ff_cbs_alloc_unit_content
00000000003e7704 T _ff_cbs_alloc_unit_content2
00000000003e72c8 T _ff_cbs_alloc_unit_data
00000000003f4200 T _ff_cbs_bsf_generic_close
00000000003f3f20 T _ff_cbs_bsf_generic_filter
00000000003f4104 T _ff_cbs_bsf_generic_init
00000000003e60d8 T _ff_cbs_close
00000000003e764c T _ff_cbs_delete_unit
00000000003e60c0 T _ff_cbs_flush
00000000003e61cc T _ff_cbs_fragment_free
00000000003e6144 T _ff_cbs_fragment_reset
00000000003e6000 T _ff_cbs_init
00000000003e7360 T _ff_cbs_insert_unit_content
00000000003e7548 T _ff_cbs_insert_unit_data
00000000003e78b8 T _ff_cbs_make_unit_refcounted
00000000003e7b98 T _ff_cbs_make_unit_writable
00000000003e646c T _ff_cbs_read
00000000003e61f0 T _ff_cbs_read_extradata
00000000003e6444 T _ff_cbs_read_extradata_from_codec
00000000003e6454 T _ff_cbs_read_packet
00000000003e6f80 T _ff_cbs_read_signed
00000000003e6ba8 T _ff_cbs_read_unsigned
000000000040e994 T _ff_cbs_sei_add_message
000000000040e770 T _ff_cbs_sei_alloc_message_payload
000000000040ed90 T _ff_cbs_sei_delete_message_type
000000000040eca4 T _ff_cbs_sei_find_message
000000000040024c T _ff_cbs_sei_find_type
000000000040e93c T _ff_cbs_sei_free_message_list
000000000040e888 T _ff_cbs_sei_list_add
00000000003e6890 T _ff_cbs_trace_header
00000000003e68c8 T _ff_cbs_trace_syntax_element
0000000000e81f98 S _ff_cbs_type_av1
0000000000e82388 S _ff_cbs_type_h264
0000000000e82658 S _ff_cbs_type_h265
0000000000e82988 S _ff_cbs_type_mpeg2
0000000000e829d8 S _ff_cbs_type_vp9
00000000003e67d8 T _ff_cbs_write_extradata
00000000003e6484 T _ff_cbs_write_fragment_data
00000000003e6840 T _ff_cbs_write_packet
00000000003e70f4 T _ff_cbs_write_signed
00000000003e6d6c T _ff_cbs_write_unsigned
0000000000f07b50 D _ff_ccaption_decoder
000000000046a608 T _ff_ccitt_unpack
00000000009cfde8 T _ff_ccitt_unpack_init
0000000000f29158 D _ff_cdg_demuxer
0000000000f07c40 D _ff_cdgraphics_decoder
0000000000f07d30 D _ff_cdtoons_decoder
0000000000f07e20 D _ff_cdxl_decoder
0000000000f29200 D _ff_cdxl_demuxer
0000000000414900 T _ff_celp_circ_addf
0000000000414840 T _ff_celp_convolve_circ
0000000000414ba8 T _ff_celp_filter_init
0000000000414960 T _ff_celp_lp_synthesis_filter
00000000004149f0 T _ff_celp_lp_synthesis_filterf
0000000000414b54 T _ff_celp_lp_zero_synthesis_filterf
0000000000414c98 T _ff_celp_math_init
0000000000c1d910 S _ff_celt_alpha_coef
0000000000c1bc68 S _ff_celt_band_end
0000000000c1d920 S _ff_celt_beta_coef
0000000000c1de92 S _ff_celt_bit_deinterleave
0000000000c1de82 S _ff_celt_bit_interleave
00000000005db744 T _ff_celt_bitalloc
0000000000c1dc0f S _ff_celt_cache_bits
0000000000c1dd98 S _ff_celt_cache_index
0000000000c1d930 S _ff_celt_coarse_energy_dist
0000000000ec50b8 S _ff_celt_codec
00000000005dc410 T _ff_celt_decode_frame
00000000005dd41c T _ff_celt_flush
00000000005dd504 T _ff_celt_free
0000000000c1d84a S _ff_celt_freq_bands
0000000000c1d860 S _ff_celt_freq_range
0000000000c1dea2 S _ff_celt_hadamard_order
00000000005dd574 T _ff_celt_init
0000000000c1de6a S _ff_celt_log2_frac
0000000000c1d875 S _ff_celt_log_freq_range
0000000000c1d8ac S _ff_celt_mean_energy
0000000000c1d82a S _ff_celt_model_alloc_trim
0000000000c1d842 S _ff_celt_model_energy_small
0000000000c1d820 S _ff_celt_model_spread
0000000000c1d818 S _ff_celt_model_tapset
0000000000c1dee0 S _ff_celt_postfilter_taps
00000000009e9dc4 T _ff_celt_pvq_init
0000000000ea6868 S _ff_celt_pvq_u_row
00000000009e9e28 T _ff_celt_pvq_uninit
0000000000c1ded0 S _ff_celt_qn_exp2
00000000005db198 T _ff_celt_quant_bands
0000000000c1da80 S _ff_celt_static_alloc
0000000000c1db67 S _ff_celt_static_caps
0000000000c1d88a S _ff_celt_tf_select
0000000000ea6860 S _ff_celt_window
0000000000c1e140 S _ff_celt_window2
0000000000f07f10 D _ff_cfhd_decoder
0000000000f08000 D _ff_cfhd_encoder
00000000009c9a44 T _ff_cfhd_init_vlcs
00000000009c9d1c T _ff_cfhddsp_init
0000000000b1ddb8 S _ff_cga_palette
0000000000279a58 T _ff_channel_layouts_changeref
00000000002799ec T _ff_channel_layouts_ref
0000000000279734 T _ff_channel_layouts_unref
00000000007d7da8 T _ff_check_h264_startcode
000000000075750c T _ff_check_interrupt
0000000000205d14 T _ff_check_pixfmt_descriptors
0000000000e840b0 S _ff_chomp_bsf
00000000007dd6e4 T _ff_choose_chroma_location
00000000007dd678 T _ff_choose_timebase
0000000000f292a8 D _ff_cine_demuxer
0000000000f080f0 D _ff_cinepak_decoder
0000000000f081e0 D _ff_cinepak_encoder
000000000054cb2c T _ff_clean_h263_qscales
00000000005b4120 T _ff_clean_intra_table_entries
00000000005a42c8 T _ff_clean_mpeg4_qscales
00000000003acab0 T _ff_clear_fixed_vector
0000000000f082d0 D _ff_clearvideo_decoder
0000000000f083d0 D _ff_cljr_decoder
0000000000f084c0 D _ff_cljr_encoder
0000000000f085b0 D _ff_cllc_decoder
0000000000f29350 D _ff_codec2_demuxer
0000000000f293f8 D _ff_codec2_muxer
0000000000f294c0 D _ff_codec2raw_demuxer
0000000000f35410 D _ff_codec2raw_muxer
0000000000cc2828 S _ff_codec_ast_tags
0000000000ccb1b8 S _ff_codec_bmp_tags
0000000000ccbf90 S _ff_codec_bmp_tags_unofficial
0000000000cc3ba0 S _ff_codec_caf_tags
000000000083d708 T _ff_codec_get_id
000000000083d6dc T _ff_codec_get_tag
0000000000800808 T _ff_codec_guid_get_id
0000000000cc4d20 S _ff_codec_ircam_be_tags
0000000000cc4cd8 S _ff_codec_ircam_le_tags
0000000000cc5588 S _ff_codec_movaudio_tags
0000000000cc5770 S _ff_codec_movdata_tags
0000000000cc5750 S _ff_codec_movsubtitle_tags
0000000000cc4ed0 S _ff_codec_movvideo_tags
0000000000ccc4a8 S _ff_codec_rso_tags
0000000000ccca98 S _ff_codec_smjpeg_audio_tags
0000000000ccca88 S _ff_codec_smjpeg_video_tags
0000000000ccc1f8 S _ff_codec_wav_guids
0000000000ccbfa8 S _ff_codec_wav_tags
0000000000667c5c T _ff_color_frame
0000000000264364 T _ff_colorspacedsp_init
00000000005e8708 T _ff_combine_frame
0000000000f086a0 D _ff_comfortnoise_decoder
0000000000f08790 D _ff_comfortnoise_encoder
000000000025dbc8 T _ff_command_queue_pop
000000000083b694 T _ff_compute_frame_duration
0000000000215fd4 T _ff_compute_safe_ssd_integral_image_neon
0000000000f29568 D _ff_concat_demuxer
0000000000eb65a8 S _ff_concat_protocol
000000000083c794 T _ff_configure_buffers_for_index
00000000007ec468 T _ff_connect_parallel
0000000000759c38 T _ff_convert_lang_to
00000000005b85cc T _ff_convert_matrix
0000000000f08880 D _ff_cook_decoder
0000000000f08970 D _ff_cook_parser
0000000000609894 T _ff_copy_and_dup
00000000003d9ab0 T _ff_copy_bits
000000000026fd94 T _ff_copy_rectangle
0000000000270470 T _ff_copy_rectangle2
000000000083a1f0 T _ff_copy_whiteblacklists
00000000016c6060 S _ff_cos_1024
00000000014b1380 S _ff_cos_1024_double
00000000015b1380 S _ff_cos_1024_float
0000000001631380 S _ff_cos_1024_int32
00000000016c6860 S _ff_cos_128
00000000014b2380 S _ff_cos_128_double
00000000015b1b80 S _ff_cos_128_float
0000000001631b80 S _ff_cos_128_int32
00000000016c6960 S _ff_cos_131072
00000000014b2580 S _ff_cos_131072_double
00000000015b1c80 S _ff_cos_131072_float
0000000001631c80 S _ff_cos_131072_int32
0000000001706960 S _ff_cos_16
0000000001706980 S _ff_cos_16384
0000000001532580 S _ff_cos_16384_double
00000000015f1c80 S _ff_cos_16384_float
0000000001671c80 S _ff_cos_16384_int32
0000000001542580 S _ff_cos_16_double
00000000015f9c80 S _ff_cos_16_float
0000000001679c80 S _ff_cos_16_int32
000000000170e980 S _ff_cos_2048
00000000015425c0 S _ff_cos_2048_double
00000000015f9ca0 S _ff_cos_2048_float
0000000001679ca0 S _ff_cos_2048_int32
000000000170f980 S _ff_cos_256
00000000015445c0 S _ff_cos_256_double
00000000015faca0 S _ff_cos_256_float
000000000167aca0 S _ff_cos_256_int32
000000000170fb80 S _ff_cos_32
000000000170fbc0 S _ff_cos_32768
00000000015449c0 S _ff_cos_32768_double
00000000015faea0 S _ff_cos_32768_float
000000000167aea0 S _ff_cos_32768_int32
00000000015649c0 S _ff_cos_32_double
000000000160aea0 S _ff_cos_32_float
000000000168aea0 S _ff_cos_32_int32
000000000171fbc0 S _ff_cos_4096
0000000001564a40 S _ff_cos_4096_double
000000000160aee0 S _ff_cos_4096_float
000000000168aee0 S _ff_cos_4096_int32
0000000001721bc0 S _ff_cos_512
0000000001568a40 S _ff_cos_512_double
000000000160cee0 S _ff_cos_512_float
000000000168cee0 S _ff_cos_512_int32
0000000001569240 S _ff_cos_53_double
000000000160d2e0 S _ff_cos_53_float
000000000168d2e0 S _ff_cos_53_int32
0000000001721fc0 S _ff_cos_64
0000000001569280 S _ff_cos_64_double
000000000160d300 S _ff_cos_64_float
000000000168d300 S _ff_cos_64_int32
0000000001722040 S _ff_cos_65536
0000000001569380 S _ff_cos_65536_double
000000000160d380 S _ff_cos_65536_float
000000000168d380 S _ff_cos_65536_int32
0000000001742040 S _ff_cos_8192
00000000015a9380 S _ff_cos_8192_double
000000000162d380 S _ff_cos_8192_float
00000000016ad380 S _ff_cos_8192_int32
0000000000e8d468 S _ff_cos_tabs
0000000000f089b0 D _ff_cpia_decoder
0000000000758374 T _ff_crc04C11DB7_update
00000000007583bc T _ff_crcA001_update
0000000000758398 T _ff_crcEDB88320_update
0000000000f29610 D _ff_crc_muxer
0000000000f08aa0 D _ff_cri_decoder
0000000000bac164 S _ff_crop_tab
0000000000eb6818 S _ff_crypto_protocol
0000000000f08b90 D _ff_cscd_decoder
0000000000f08d70 D _ff_cyuv_decoder
0000000000762d00 T _ff_dash_fill_tmpl_params
0000000000f296d8 D _ff_dash_muxer
0000000000f34e10 D _ff_data_demuxer
0000000000ccd19c S _ff_data_guid
0000000000f354d8 D _ff_data_muxer
0000000000eb7750 S _ff_data_protocol
0000000000841564 T _ff_data_to_hex
0000000000f297a0 D _ff_daud_demuxer
0000000000f29848 D _ff_daud_muxer
0000000001751150 S _ff_dc_chroma_vlc
0000000001751168 S _ff_dc_lum_vlc
0000000000b21aac S _ff_dca_adpcm_vb
0000000000b37398 S _ff_dca_avg_g3_freqs
0000000000b387a4 S _ff_dca_bank_coeff
0000000000b21a00 S _ff_dca_bit_rates
0000000000b218f4 S _ff_dca_bits_per_sample
0000000000b21a80 S _ff_dca_channels
0000000000e8a028 S _ff_dca_core_bsf
00000000009cbbf4 T _ff_dca_core_close
000000000042505c T _ff_dca_core_filter_fixed
0000000000425464 T _ff_dca_core_filter_frame
00000000009cbb0c T _ff_dca_core_flush
00000000009cbb54 T _ff_dca_core_init
00000000004229b0 T _ff_dca_core_parse
000000000042424c T _ff_dca_core_parse_exss
0000000000b37ae4 S _ff_dca_corr_cf
0000000000f08ea0 D _ff_dca_decoder
0000000000b21a90 S _ff_dca_dmix_primary_nch
0000000000b36d40 S _ff_dca_dmixtable
00000000004300b8 T _ff_dca_downmix_to_stereo_fixed
0000000000430220 T _ff_dca_downmix_to_stereo_float
0000000000f08f90 D _ff_dca_encoder
0000000000427418 T _ff_dca_exss_parse
0000000000b32940 S _ff_dca_fir_32bands_nonperfect
0000000000b35140 S _ff_dca_fir_32bands_nonperfect_fixed
0000000000b32140 S _ff_dca_fir_32bands_perfect
0000000000b34940 S _ff_dca_fir_32bands_perfect_fixed
0000000000b33940 S _ff_dca_fir_64bands
0000000000b35d40 S _ff_dca_fir_64bands_fixed
0000000000b218e4 S _ff_dca_freq_ranges
0000000000b373f6 S _ff_dca_freq_to_sb
0000000000b3739e S _ff_dca_fst_amp
0000000000b3741e S _ff_dca_grid_1_to_scf
0000000000b3746c S _ff_dca_grid_1_weights
0000000000b37429 S _ff_dca_grid_2_to_scf
0000000000b2a140 S _ff_dca_high_freq_vq
00000000009cc3d4 T _ff_dca_init_vlcs
0000000000b36f24 S _ff_dca_inv_dmixtable
0000000000b29dac S _ff_dca_joint_scale_factors
00000000009cbe08 T _ff_dca_lbr_close
00000000004299ac T _ff_dca_lbr_filter_frame
00000000009cbc5c T _ff_dca_lbr_flush
00000000009cbd14 T _ff_dca_lbr_init
00000000004281bc T _ff_dca_lbr_parse
0000000000b3762c S _ff_dca_lfe_delta_index_16
0000000000b37634 S _ff_dca_lfe_delta_index_24
0000000000b33540 S _ff_dca_lfe_fir_128
0000000000b33140 S _ff_dca_lfe_fir_64
0000000000b35940 S _ff_dca_lfe_fir_64_fixed
0000000000b387cc S _ff_dca_lfe_iir
0000000000b383d0 S _ff_dca_lfe_step_size_16
0000000000b38564 S _ff_dca_lfe_step_size_24
0000000000b381d0 S _ff_dca_long_window
0000000000b2a0c0 S _ff_dca_lossless_quant
0000000000b2a040 S _ff_dca_lossy_quant
0000000000422678 T _ff_dca_parse_core_frame_header
0000000000f08e60 D _ff_dca_parser
0000000000b37416 S _ff_dca_ph0_shift
0000000000b38064 S _ff_dca_quant_amp
0000000000b21aa2 S _ff_dca_quant_index_group_size
0000000000b21a98 S _ff_dca_quant_index_sel_nbits
0000000000b29fc0 S _ff_dca_quant_levels
0000000000b37a24 S _ff_dca_rsd_level_16
0000000000b379d4 S _ff_dca_rsd_level_2a
0000000000b379dc S _ff_dca_rsd_level_2b
0000000000b379e4 S _ff_dca_rsd_level_3
0000000000b379f0 S _ff_dca_rsd_level_5
0000000000b37a04 S _ff_dca_rsd_level_8
0000000000b37854 S _ff_dca_rsd_pack_3_in_7
0000000000b37654 S _ff_dca_rsd_pack_5_in_8
0000000000b218a4 S _ff_dca_sampling_freqs
0000000000b375ec S _ff_dca_sb_reorder
0000000000b29fb0 S _ff_dca_scale_factor_adj
0000000000b29aac S _ff_dca_scale_factor_quant6
0000000000b29bac S _ff_dca_scale_factor_quant7
0000000000b3742c S _ff_dca_scf_to_grid_1
0000000000b3744c S _ff_dca_scf_to_grid_2
000000000042ff98 T _ff_dca_set_channel_layout
0000000000b38148 S _ff_dca_st_coeff
0000000000b37a64 S _ff_dca_synth_env
00000000016c37e0 S _ff_dca_vlc_avg_g3
00000000016c37f8 S _ff_dca_vlc_bit_allocation
0000000000433e24 T _ff_dca_vlc_calc_alloc_bits
0000000000433bf8 T _ff_dca_vlc_calc_quant_bits
00000000016c38a8 S _ff_dca_vlc_damp
00000000016c38c0 S _ff_dca_vlc_dph
0000000000433e68 T _ff_dca_vlc_enc_alloc
0000000000433ca8 T _ff_dca_vlc_enc_quant
00000000016c38d8 S _ff_dca_vlc_fst_rsd_amp
00000000016c38f0 S _ff_dca_vlc_grid_2
00000000016c3908 S _ff_dca_vlc_grid_3
00000000016c3920 S _ff_dca_vlc_quant_index
00000000016c4000 S _ff_dca_vlc_rsd
00000000016c4018 S _ff_dca_vlc_rsd_amp
00000000016c4030 S _ff_dca_vlc_rsd_apprx
00000000016c4048 S _ff_dca_vlc_scale_factor
00000000016c40f8 S _ff_dca_vlc_st_grid
00000000016c4110 S _ff_dca_vlc_tnl_grp
00000000016c4188 S _ff_dca_vlc_tnl_scf
00000000016c41a0 S _ff_dca_vlc_transition_mode
0000000000b37348 S _ff_dca_xll_band_coeff
00000000009cbe70 T _ff_dca_xll_close
000000000042c68c T _ff_dca_xll_filter_frame
00000000009cbe64 T _ff_dca_xll_flush
000000000042c4c8 T _ff_dca_xll_parse
0000000000b37248 S _ff_dca_xll_refl_coeff
000000000042f314 T _ff_dcaadpcm_do_real
00000000009cc0e4 T _ff_dcaadpcm_free
00000000009cbff0 T _ff_dcaadpcm_init
000000000042f030 T _ff_dcaadpcm_subband_analysis
00000000009cc0f0 T _ff_dcadct_init
00000000009cc2c8 T _ff_dcadsp_init
0000000000f29910 D _ff_dcstr_demuxer
0000000000434394 T _ff_dct32_fixed
0000000000434d70 T _ff_dct32_float
00000000009e605c T _ff_dct_encode_init
00000000009ccbb4 T _ff_dct_end
00000000009cca58 T _ff_dct_init
00000000005b894c T _ff_dct_quantize_c
0000000000f09080 D _ff_dds_decoder
00000000003ac810 T _ff_decode_10_pulses_35bits
00000000004367f0 T _ff_decode_bsfs_init
0000000000438b20 T _ff_decode_frame_props
0000000000437ffc T _ff_decode_get_hw_frames_ctx
0000000000436900 T _ff_decode_get_packet
00000000003ac6a8 T _ff_decode_pitch_lag
000000000036f8cc T _ff_decode_sbr_extension
00000000003747d0 T _ff_decode_sbr_extension_fixed
0000000000beef44 S _ff_default_chroma_qscale_table
000000000024ecf8 T _ff_default_get_audio_buffer
000000000034604c T _ff_default_get_video_buffer
0000000000279cd8 T _ff_default_query_formats
0000000000f299b8 D _ff_derf_demuxer
0000000000f09700 D _ff_derf_dpcm_decoder
0000000000264238 T _ff_determine_signal_peak
0000000000f09170 D _ff_dfa_decoder
0000000000f29a60 D _ff_dfa_demuxer
0000000000f29b08 D _ff_dhav_demuxer
0000000000381a24 T _ff_diff_pixels_neon
0000000000ccd16c S _ff_dir_entry_guid
0000000000ec50f8 S _ff_dirac_codec
0000000000f092a0 D _ff_dirac_decoder
0000000000b401e8 S _ff_dirac_default_qmat
0000000000f29bb0 D _ff_dirac_demuxer
0000000000b3c180 S _ff_dirac_golomb_lut
000000000043e8d8 T _ff_dirac_golomb_read_16bit
000000000043e9b0 T _ff_dirac_golomb_read_32bit
000000000043a8dc T _ff_dirac_init_arith_decoder
00000000009cccac T _ff_dirac_init_arith_tables
0000000000f355a0 D _ff_dirac_muxer
0000000000b3bf0c S _ff_dirac_next_ctx
0000000000f09260 D _ff_dirac_parser
00000000016c4250 S _ff_dirac_prob_branchless
0000000000b40608 S _ff_dirac_qoffset_inter_tab
0000000000b40428 S _ff_dirac_qoffset_intra_tab
0000000000b40258 S _ff_dirac_qscale_tab
00000000009cce08 T _ff_diracdsp_init
0000000000cce580 S _ff_dither_2x2_4
0000000000cce598 S _ff_dither_2x2_8
0000000000cce5b0 S _ff_dither_4x4_16
0000000000cce6e8 S _ff_dither_8x8_128
0000000000cce668 S _ff_dither_8x8_220
0000000000cce5d8 S _ff_dither_8x8_32
0000000000cce620 S _ff_dither_8x8_73
0000000000e9c830 S _ff_division_tabs
000000000026d13c T _ff_dnn_execute_layer_avg_pool
000000000026d5f8 T _ff_dnn_execute_layer_conv2d
000000000026dd1c T _ff_dnn_execute_layer_dense
000000000026e054 T _ff_dnn_execute_layer_depth2space
000000000026e2bc T _ff_dnn_execute_layer_math_binary
000000000026e648 T _ff_dnn_execute_layer_math_unary
000000000026e9d0 T _ff_dnn_execute_layer_maximum
000000000026eb88 T _ff_dnn_execute_layer_pad
000000000026ccbc T _ff_dnn_execute_model_native
000000000026c9b4 T _ff_dnn_free_model_native
000000000026d07c T _ff_dnn_load_layer_avg_pool
000000000026d45c T _ff_dnn_load_layer_conv2d
000000000026dbac T _ff_dnn_load_layer_dense
000000000026dfe0 T _ff_dnn_load_layer_depth2space
000000000026e1f4 T _ff_dnn_load_layer_math_binary
000000000026e5d0 T _ff_dnn_load_layer_math_unary
000000000026e958 T _ff_dnn_load_layer_maximum
000000000026eae8 T _ff_dnn_load_layer_pad
000000000026c6d0 T _ff_dnn_load_model_native
0000000000f093e0 D _ff_dnxhd_decoder
0000000000f29c58 D _ff_dnxhd_demuxer
0000000000f094d0 D _ff_dnxhd_encoder
00000000004445c4 T _ff_dnxhd_find_cid
00000000004444d8 T _ff_dnxhd_get_cid_table
0000000000f35668 D _ff_dnxhd_muxer
0000000000f093a0 D _ff_dnxhd_parser
0000000000444728 T _ff_dnxhd_print_profiles
0000000000f095c0 D _ff_dolby_e_decoder
0000000000449fec T _ff_dolby_e_parse_header
0000000000449f18 T _ff_dolby_e_parse_init
0000000000f096c0 D _ff_dolby_e_parser
0000000000414c4c T _ff_dot_product
0000000000414c74 T _ff_dot_productf
0000000000f09d90 D _ff_dpx_decoder
0000000000f09ec0 D _ff_dpx_encoder
0000000000f09e80 D _ff_dpx_parser
0000000000270094 T _ff_draw_color
00000000005b1e8c T _ff_draw_horiz_band
000000000026fe88 T _ff_draw_init
000000000041a6cc T _ff_draw_pc_font
000000000026fcd8 T _ff_draw_rectangle
0000000000270f68 T _ff_draw_round_to_sub
0000000000270fb8 T _ff_draw_supported_pixel_formats
000000000044c750 T _ff_dsd2pcm_translate
0000000000f09fc0 D _ff_dsd_lsbf_decoder
0000000000f0a290 D _ff_dsd_lsbf_planar_decoder
0000000000f0a0b0 D _ff_dsd_msbf_decoder
0000000000f0a1a0 D _ff_dsd_msbf_planar_decoder
0000000000f29d00 D _ff_dsf_demuxer
0000000000f29da8 D _ff_dsicin_demuxer
0000000000f0a380 D _ff_dsicinaudio_decoder
0000000000f0a470 D _ff_dsicinvideo_decoder
00000000009f1fe8 T _ff_dsputil_init_dwt
0000000000f29e50 D _ff_dss_demuxer
0000000000f0a560 D _ff_dss_sp_decoder
0000000000f0a650 D _ff_dst_decoder
0000000000f29ef8 D _ff_dts_demuxer
0000000000f35730 D _ff_dts_muxer
0000000000f29fa0 D _ff_dtshd_demuxer
0000000000e8bb48 S _ff_dump_extradata_bsf
0000000000f2a048 D _ff_dv_demuxer
0000000000ec8be0 S _ff_dv_dynamic_handler
000000000044ef50 T _ff_dv_frame_profile
000000000044e9fc T _ff_dv_init_dynamic_tables
0000000000f2a240 D _ff_dv_muxer
000000000076cc4c T _ff_dv_offset_reset
000000000044eec0 T _ff_dv_print_profiles
0000000000b46140 S _ff_dv_quant_offset
0000000000b460e8 S _ff_dv_quant_shifts
00000000016c4650 S _ff_dv_rl_vlc
0000000000b46144 S _ff_dv_vlc_bits
0000000000b46476 S _ff_dv_vlc_len
0000000000b467a8 S _ff_dv_vlc_level
0000000000b4660f S _ff_dv_vlc_run
0000000000b460a8 S _ff_dv_zigzag248_direct
0000000000f0a780 D _ff_dvaudio_decoder
0000000000f0a740 D _ff_dvaudio_parser
0000000000f0a8b0 D _ff_dvbsub_decoder
0000000000f2a0f0 D _ff_dvbsub_demuxer
0000000000f0a9a0 D _ff_dvbsub_encoder
0000000000f0a870 D _ff_dvbsub_parser
0000000000f2a198 D _ff_dvbtxt_demuxer
0000000000f0aa90 D _ff_dvd_nav_parser
0000000000f0ac00 D _ff_dvdsub_decoder
0000000000f0acf0 D _ff_dvdsub_encoder
000000000045362c T _ff_dvdsub_parse_palette
0000000000f0abc0 D _ff_dvdsub_parser
0000000000f0aad0 D _ff_dvvideo_decoder
0000000000f0ade0 D _ff_dvvideo_encoder
00000000009ce6a8 T _ff_dvvideo_init
000000000055db80 T _ff_dwt_decode
000000000055e0c8 T _ff_dwt_destroy
000000000055d5c8 T _ff_dwt_encode
00000000009f2018 T _ff_dwt_init
0000000000f2a308 D _ff_dxa_demuxer
0000000000f0aed0 D _ff_dxtory_decoder
0000000000f0afc0 D _ff_dxv_decoder
0000000000f2a3b0 D _ff_ea_cdata_demuxer
0000000000f2a458 D _ff_ea_demuxer
000000000045fa50 T _ff_ea_idct_put_c
0000000000b473e0 S _ff_eac3_bits_vs_hebap
0000000000e8c658 S _ff_eac3_core_bsf
0000000000afe630 S _ff_eac3_custom_channel_map_locations
0000000000f00e50 D _ff_eac3_decoder
0000000000afe61a S _ff_eac3_default_chmap
0000000000afe35f S _ff_eac3_default_cpl_band_struct
0000000000afdaac S _ff_eac3_default_spx_band_struct
0000000000f26268 D _ff_eac3_demuxer
0000000000f0b0b0 D _ff_eac3_encoder
00000000009cf470 T _ff_eac3_exponent_init
0000000000b4a124 S _ff_eac3_frm_expstr
0000000000b473f4 S _ff_eac3_gaq_remap_1
0000000000b4740c S _ff_eac3_gaq_remap_2_4_a
0000000000b47430 S _ff_eac3_gaq_remap_2_4_b
000000000045eefc T _ff_eac3_get_frame_exp_strategy
0000000000afda6c S _ff_eac3_hebap_tab
0000000000e8c698 S _ff_eac3_mantissa_vq
0000000000f357f8 D _ff_eac3_muxer
000000000045f0ac T _ff_eac3_output_frame_header
000000000045ef9c T _ff_eac3_set_cpl_states
0000000000b4a1e4 S _ff_eac3_spx_atten_tab
0000000000f0b1a0 D _ff_eacmv_decoder
0000000000f0b290 D _ff_eamad_decoder
0000000000f0b380 D _ff_eatgq_decoder
0000000000f0b470 D _ff_eatgv_decoder
0000000000f0b560 D _ff_eatqi_decoder
0000000000272588 T _ff_ebur128_add_frames_double
000000000027255c T _ff_ebur128_add_frames_float
0000000000272530 T _ff_ebur128_add_frames_int
00000000002722b4 T _ff_ebur128_add_frames_planar_double
0000000000272050 T _ff_ebur128_add_frames_planar_float
0000000000271dd4 T _ff_ebur128_add_frames_planar_int
00000000002719c0 T _ff_ebur128_add_frames_planar_short
0000000000272504 T _ff_ebur128_add_frames_short
0000000000271900 T _ff_ebur128_destroy
0000000000271448 T _ff_ebur128_init
00000000002726ac T _ff_ebur128_loudness_global
00000000002727f4 T _ff_ebur128_loudness_global_multiple
00000000002727f8 T _ff_ebur128_loudness_momentary
0000000000272b80 T _ff_ebur128_loudness_range
0000000000272948 T _ff_ebur128_loudness_range_multiple
0000000000272888 T _ff_ebur128_loudness_shortterm
00000000002728e0 T _ff_ebur128_loudness_window
00000000002725b4 T _ff_ebur128_relative_threshold
0000000000272b9c T _ff_ebur128_sample_peak
000000000027197c T _ff_ebur128_set_channel
0000000000b1ddf8 S _ff_ega_palette
0000000000f00230 D _ff_eightbps_decoder
0000000000f00410 D _ff_eightsvx_exp_decoder
0000000000f00320 D _ff_eightsvx_fib_decoder
0000000000691fbc T _ff_emulated_edge_mc_16
0000000000691da0 T _ff_emulated_edge_mc_8
000000000046292c T _ff_encode_get_frame
0000000000801020 T _ff_end_tag
0000000000c26964 S _ff_energy_tab
0000000000f2a500 D _ff_epaf_demuxer
0000000000584f94 T _ff_epzs_motion_search
00000000002b22d8 T _ff_eq_init
000000000046330c T _ff_er_add_slice
0000000000463558 T _ff_er_frame_end
00000000004632a8 T _ff_er_frame_start
0000000000f0b650 D _ff_escape124_decoder
0000000000f0b740 D _ff_escape130_decoder
000000000058ae18 T _ff_estimate_b_frame_motion
0000000000589684 T _ff_estimate_p_frame_motion
0000000000609a44 T _ff_eval_coefs
0000000000609908 T _ff_eval_refl
0000000000f0b830 D _ff_evrc_decoder
0000000000468830 T _ff_exif_decode_ifd
0000000000414bc0 T _ff_exp2
0000000000e8d318 S _ff_extract_extradata_bsf
0000000000f306a8 D _ff_f4v_muxer
000000000046951c T _ff_faandct
000000000046977c T _ff_faandct248
0000000000469a70 T _ff_faanidct
0000000000469fc8 T _ff_faanidct_add
000000000046a044 T _ff_faanidct_put
0000000000f0b920 D _ff_fastaudio_decoder
0000000000afe7ac S _ff_fc_2pulses_9bits_track1
0000000000afe7bc S _ff_fc_2pulses_9bits_track1_gray
0000000000afe7cc S _ff_fc_2pulses_9bits_track2_gray
0000000000afe7fc S _ff_fc_4pulses_8bits_track_4
0000000000afe7ec S _ff_fc_4pulses_8bits_tracks_13
000000000055617c T _ff_fdct248_islow_10
0000000000555cd8 T _ff_fdct248_islow_8
00000000005556ac T _ff_fdct_ifast
000000000055589c T _ff_fdct_ifast248
00000000009cff20 T _ff_fdctdsp_init
00000000005e834c T _ff_fetch_timestamp
0000000000f2a5a8 D _ff_ffmetadata_demuxer
0000000000f2a650 D _ff_ffmetadata_muxer
0000000000ec7960 S _ff_ffrtmphttp_protocol
000000000037aa78 T _ff_fft_calc_neon
00000000009d045c T _ff_fft_end
00000000009d01c8 T _ff_fft_end_fixed_32
00000000009d020c T _ff_fft_init
00000000009c0578 T _ff_fft_init_aarch64
00000000009cff9c T _ff_fft_init_fixed_32
000000000046c038 T _ff_fft_lut_init
0000000001746040 S _ff_fft_offsets_lut
000000000037aad4 T _ff_fft_permute_neon
000000000046c0f8 T _ff_ffv1_allocate_initial_states
000000000046c16c T _ff_ffv1_clear_slice_state
00000000009d0944 T _ff_ffv1_close
00000000009d05a4 T _ff_ffv1_common_init
0000000000f0bbe0 D _ff_ffv1_decoder
0000000000f0bcd0 D _ff_ffv1_encoder
00000000009d07c0 T _ff_ffv1_init_slice_contexts
00000000009d0620 T _ff_ffv1_init_slice_state
00000000009d0768 T _ff_ffv1_init_slices_state
0000000000f0e9b0 D _ff_ffvhuff_decoder
0000000000f0ec80 D _ff_ffvhuff_encoder
0000000000f0bdc0 D _ff_ffwavesynth_decoder
0000000000f0beb0 D _ff_fic_decoder
0000000000f2a718 D _ff_fifo_muxer
0000000000f2a7e0 D _ff_fifo_test_muxer
0000000000eb7ed0 S _ff_file_protocol
000000000026fa6c T _ff_fill_line_with_color
000000000027059c T _ff_fill_rectangle
0000000000263fc0 T _ff_fill_rgb2xyz_table
0000000000264150 T _ff_fill_rgb2yuv_table
000000000026f97c T _ff_fill_rgba_map
0000000000f2a8a8 D _ff_filmstrip_demuxer
0000000000f2a950 D _ff_filmstrip_muxer
000000000025f54c T _ff_filter_activate
000000000025e928 T _ff_filter_alloc
000000000025f43c T _ff_filter_frame
000000000025ecf4 T _ff_filter_get_nb_threads
00000000002602bc T _ff_filter_graph_remove_filter
0000000000261e48 T _ff_filter_graph_run_once
000000000025feb4 T _ff_filter_init_hw_frames
000000000025ed14 T _ff_filter_process_command
000000000025df68 T _ff_filter_set_ready
0000000000e8d920 S _ff_filter_units_bsf
000000000083d05c T _ff_find_last_ts
0000000000841828 T _ff_find_stream_index
00000000005b1d70 T _ff_find_unused_picture
0000000000f0bfa0 D _ff_fits_decoder
0000000000f2aa18 D _ff_fits_demuxer
0000000000f0c090 D _ff_fits_encoder
0000000000f2aac0 D _ff_fits_muxer
000000000058c3b0 T _ff_fix_long_mvs
000000000058c1cc T _ff_fix_long_p_mvs
0000000000b52f48 S _ff_flac_blocksize_table
0000000000ec5178 S _ff_flac_codec
00000000004771a0 T _ff_flac_decode_frame_header
0000000000f0c1c0 D _ff_flac_decoder
0000000000f2ab88 D _ff_flac_demuxer
0000000000f0c2b0 D _ff_flac_encoder
00000000004774ec T _ff_flac_get_max_frame_size
0000000000477524 T _ff_flac_is_extradata_valid
000000000077391c T _ff_flac_is_native_layout
0000000000f2ac30 D _ff_flac_muxer
0000000000772360 T _ff_flac_parse_picture
0000000000477624 T _ff_flac_parse_streaminfo
0000000000f0c180 D _ff_flac_parser
0000000000b52f08 S _ff_flac_sample_rate_table
00000000004775f8 T _ff_flac_set_channel_layout
0000000000773878 T _ff_flac_write_header
00000000009d2a48 T _ff_flacdsp_init
0000000000f0c3a0 D _ff_flic_decoder
0000000000f2acf8 D _ff_flic_demuxer
00000000009a57d4 T _ff_float_dsp_init_aarch64
000000000047e4f0 T _ff_flv2_encode_ac_esc
000000000047df5c T _ff_flv_decode_picture_header
0000000000f0c490 D _ff_flv_decoder
0000000000f2ada0 D _ff_flv_demuxer
000000000047e270 T _ff_flv_encode_picture_header
0000000000f0c580 D _ff_flv_encoder
0000000000f2af98 D _ff_flv_muxer
00000000009d3368 T _ff_fmt_convert_init
00000000009c05d4 T _ff_fmt_convert_init_aarch64
000000000027947c T _ff_fmt_is_in
0000000000f0c670 D _ff_fmvc_decoder
0000000000ccd30c S _ff_format_cpfilters_processed
000000000084274c T _ff_format_io_close
0000000000ccd32c S _ff_format_mpeg2_video
0000000000ccd20c S _ff_format_none
0000000000842710 T _ff_format_output_open
0000000000842c4c T _ff_format_set_url
0000000000ccd33c S _ff_format_videoinfo2
0000000000ccd31c S _ff_format_waveformatex
0000000000279a9c T _ff_formats_changeref
0000000000279fd0 T _ff_formats_check_channel_layouts
0000000000279ef4 T _ff_formats_check_pixel_formats
0000000000279fa0 T _ff_formats_check_sample_formats
0000000000279fb0 T _ff_formats_check_sample_rates
0000000000279818 T _ff_formats_pixdesc_filter
0000000000279a24 T _ff_formats_ref
000000000027964c T _ff_formats_unref
0000000000f00140 D _ff_fourxm_decoder
0000000000f25e58 D _ff_fourxm_demuxer
000000000027a450 T _ff_frame_pool_audio_init
000000000027a5d8 T _ff_frame_pool_get
000000000027a56c T _ff_frame_pool_get_audio_config
000000000027a504 T _ff_frame_pool_get_video_config
000000000027a3fc T _ff_frame_pool_uninit
000000000027a244 T _ff_frame_pool_video_init
000000000048085c T _ff_frame_thread_encoder_free
00000000004802e0 T _ff_frame_thread_encoder_init
00000000005f7814 T _ff_frame_thread_free
00000000005f7c10 T _ff_frame_thread_init
0000000000f2b060 D _ff_framecrc_muxer
0000000000f2bf90 D _ff_framehash_muxer
0000000000778db4 T _ff_framehash_write_header
0000000000f2c058 D _ff_framemd5_muxer
000000000027a930 T _ff_framequeue_add
000000000027a888 T _ff_framequeue_free
000000000027a874 T _ff_framequeue_global_init
000000000027a878 T _ff_framequeue_init
000000000027aa28 T _ff_framequeue_peek
000000000027aa44 T _ff_framequeue_skip_samples
000000000027a8e0 T _ff_framequeue_take
00000000002bd118 T _ff_framerate_init
000000000027b084 T _ff_framesync_activate
000000000027ab98 T _ff_framesync_child_class_iterate
000000000027ac74 T _ff_framesync_configure
000000000027b4e0 T _ff_framesync_dualinput_get
000000000027b5bc T _ff_framesync_dualinput_get_writable
000000000027abb8 T _ff_framesync_get_class
000000000027af10 T _ff_framesync_get_frame
000000000027abe0 T _ff_framesync_init
000000000027b464 T _ff_framesync_init_dualinput
000000000027abc4 T _ff_framesync_preinit
000000000027b020 T _ff_framesync_uninit
0000000000f0c760 D _ff_fraps_decoder
000000000087e63c T _ff_free_filters
00000000005b19d4 T _ff_free_picture_tables
00000000008408cc T _ff_free_stream
00000000003da64c T _ff_free_vlc
0000000000f2b128 D _ff_frm_demuxer
0000000000f0c850 D _ff_frwu_decoder
0000000000f2b1d0 D _ff_fsb_demuxer
0000000000eb8940 S _ff_ftp_protocol
0000000000f2b278 D _ff_fwse_demuxer
0000000000f2b320 D _ff_g722_demuxer
0000000000b53186 S _ff_g722_high_inv_quant
0000000000b5318e S _ff_g722_low_inv_quant4
0000000000b531ae S _ff_g722_low_inv_quant6
0000000000f358c0 D _ff_g722_muxer
00000000004819d0 T _ff_g722_update_high_predictor
00000000004816c4 T _ff_g722_update_low_predictor
00000000009d36d0 T _ff_g722dsp_init
0000000000b55b80 S _ff_g723_1_adaptive_cb_gain170
0000000000b54e38 S _ff_g723_1_adaptive_cb_gain85
0000000000b54b38 S _ff_g723_1_combinatorial_table
0000000000b53334 S _ff_g723_1_cos_tab
0000000000f0cb60 D _ff_g723_1_decoder
0000000000f2b3c8 D _ff_g723_1_demuxer
0000000000482948 T _ff_g723_1_dot_product
0000000000f0cc50 D _ff_g723_1_encoder
0000000000b54e08 S _ff_g723_1_fixed_cb_gain
0000000000482a88 T _ff_g723_1_gen_acb_excitation
00000000004829cc T _ff_g723_1_gen_dirac_train
0000000000482978 T _ff_g723_1_get_residual
0000000000482fdc T _ff_g723_1_inverse_quant
0000000000b53736 S _ff_g723_1_lsp_band0
0000000000b53d36 S _ff_g723_1_lsp_band1
0000000000b54336 S _ff_g723_1_lsp_band2
0000000000482bd8 T _ff_g723_1_lsp_interpolate
0000000000f35988 D _ff_g723_1_muxer
0000000000482934 T _ff_g723_1_normalize_bits
0000000000f0cb20 D _ff_g723_1_parser
00000000004828cc T _ff_g723_1_scale_vector
0000000000ec8c28 S _ff_g726_16_dynamic_handler
0000000000ec8cb8 S _ff_g726_24_dynamic_handler
0000000000ec8d48 S _ff_g726_32_dynamic_handler
0000000000ec8dd8 S _ff_g726_40_dynamic_handler
0000000000f2b470 D _ff_g726_demuxer
0000000000f35a50 D _ff_g726_muxer
0000000000ec8c70 S _ff_g726le_16_dynamic_handler
0000000000ec8d00 S _ff_g726le_24_dynamic_handler
0000000000ec8d90 S _ff_g726le_32_dynamic_handler
0000000000ec8e20 S _ff_g726le_40_dynamic_handler
0000000000f2b518 D _ff_g726le_demuxer
0000000000f35b18 D _ff_g726le_muxer
0000000000489614 T _ff_g729_adaptive_gain_control
0000000000f0d140 D _ff_g729_decoder
0000000000f2b5c0 D _ff_g729_demuxer
0000000000f0d100 D _ff_g729_parser
0000000000488c20 T _ff_g729_postfilter
0000000000c23e64 S _ff_gain_exp_tab
0000000000c23864 S _ff_gain_val_tab
00000000002bf80c T _ff_gblur_init
0000000000f0d320 D _ff_gdv_decoder
0000000000f2b668 D _ff_gdv_demuxer
000000000083cc94 T _ff_gen_search
0000000000842178 T _ff_generate_avci_extradata
000000000027b680 T _ff_generate_wave_table
0000000000f2b710 D _ff_genh_demuxer
000000000087ea04 T _ff_getSwsFunc
000000000060cfa0 T _ff_get_2pass_fcode
000000000024ecac T _ff_get_audio_buffer
000000000058bfe8 T _ff_get_best_fcode
0000000000800d40 T _ff_get_bmp_header
0000000000438e3c T _ff_get_buffer
00000000007588c8 T _ff_get_chomp_line
000000000080162c T _ff_get_codec_guid
00000000001f0404 T _ff_get_cpu_flags_aarch64
00000000001f040c T _ff_get_cpu_max_align_aarch64
000000000026f48c T _ff_get_dnn_module
000000000083d9ac T _ff_get_extradata
00000000004381bc T _ff_get_format
0000000000841084 T _ff_get_formatted_ntp_time
00000000008007c4 T _ff_get_guid
0000000000758844 T _ff_get_line
0000000000264120 T _ff_get_luma_coefficients
000000000027fc2c T _ff_get_matrix
0000000000584844 T _ff_get_mb_score
00000000008428b0 T _ff_get_packet_palette
000000000083d774 T _ff_get_pcm_codec_id
0000000000381a00 T _ff_get_pixels_neon
00000000007fdd64 T _ff_get_qtpalette
00000000008809c4 T _ff_get_unscaled_swscale
000000000085d0a0 T _ff_get_unscaled_swscale_aarch64
0000000000345fd8 T _ff_get_video_buffer
0000000000800848 T _ff_get_wav_header
0000000000f0d540 D _ff_gif_decoder
0000000000f2b880 D _ff_gif_demuxer
0000000000f0d410 D _ff_gif_encoder
0000000000f2b7b8 D _ff_gif_muxer
0000000000f0d500 D _ff_gif_parser
00000000005c654c T _ff_gmc_c
0000000000b58d5e S _ff_golomb_vlc_len
0000000000eb90d0 S _ff_gopher_protocol
00000000002c0ab8 T _ff_gradfun_blur_line_c
00000000002c0a40 T _ff_gradfun_filter_line_c
000000000027e4cc T _ff_graph_thread_free
000000000027e3c4 T _ff_graph_thread_init
0000000000f097f0 D _ff_gremlin_dpcm_decoder
0000000000e8eb50 S _ff_gsm_apcm_bits
0000000000f0d670 D _ff_gsm_decoder
0000000000f2b928 D _ff_gsm_demuxer
0000000000b59890 S _ff_gsm_dequant_tab
0000000000b59868 S _ff_gsm_long_term_gain_tab
0000000000f0d760 D _ff_gsm_ms_decoder
0000000000f35be0 D _ff_gsm_muxer
0000000000f0d630 D _ff_gsm_parser
0000000000b59870 S _ff_gsm_requant_tab
000000000066ac1c T _ff_guess_coded_bitrate
0000000000797d18 T _ff_guess_image2_codec
0000000000f2b9d0 D _ff_gxf_demuxer
0000000000f2ba78 D _ff_gxf_muxer
0000000000b59f72 S _ff_h261_cbp_tab
0000000000f0d9e0 D _ff_h261_decoder
0000000000f2bb40 D _ff_h261_demuxer
0000000000ec8e68 S _ff_h261_dynamic_handler
00000000009d4328 T _ff_h261_encode_init
000000000048e224 T _ff_h261_encode_mb
000000000048defc T _ff_h261_encode_picture_header
0000000000f0daf0 D _ff_h261_encoder
000000000048ded4 T _ff_h261_get_picture_format
000000000048cbb0 T _ff_h261_loop_filter
0000000000b59eef S _ff_h261_mba_bits
0000000000b59ecc S _ff_h261_mba_code
0000000000b59f1c S _ff_h261_mtype_bits
0000000000b59f12 S _ff_h261_mtype_code
0000000000b59f28 S _ff_h261_mtype_map
0000000000f35ca8 D _ff_h261_muxer
0000000000b59f50 S _ff_h261_mv_tab
0000000000f0d850 D _ff_h261_parser
000000000048e084 T _ff_h261_reorder_mb_index
0000000000f0d890 D _ff_h261_rl_tcoeff
0000000000ec8eb0 S _ff_h263_1998_dynamic_handler
0000000000ec8ef8 S _ff_h263_2000_dynamic_handler
000000000054c588 T _ff_h263_aspect_to_info
0000000000b5a268 S _ff_h263_cbpy_tab
0000000001750af0 S _ff_h263_cbpy_vlc
0000000000b5a81a S _ff_h263_chroma_qscale_table
00000000009d46ac T _ff_h263_decode_end
000000000048f1d4 T _ff_h263_decode_frame
00000000009d44c0 T _ff_h263_decode_init
00000000009dc094 T _ff_h263_decode_init_vlc
000000000054a6c4 T _ff_h263_decode_mb
000000000054a1c0 T _ff_h263_decode_mba
000000000054a560 T _ff_h263_decode_motion
000000000054ba38 T _ff_h263_decode_picture_header
0000000000f0ded0 D _ff_h263_decoder
0000000000f2bbe8 D _ff_h263_demuxer
000000000054ca84 T _ff_h263_encode_gob_header
00000000009dc290 T _ff_h263_encode_init
000000000054cc2c T _ff_h263_encode_mb
000000000054ca30 T _ff_h263_encode_mba
000000000054d8a4 T _ff_h263_encode_motion
000000000054c600 T _ff_h263_encode_picture_header
0000000000f13f50 D _ff_h263_encoder
000000000048f044 T _ff_h263_find_frame_end
0000000000815dd4 T _ff_h263_find_resync_marker_reverse
0000000000b5a79a S _ff_h263_format
000000000080f2ec T _ff_h263_handle_packet
0000000000b5a8f0 S _ff_h263_hw_config_list
0000000000b5a8e4 S _ff_h263_hwaccel_pixfmt_list_420
00000000009d4498 T _ff_h263_init_rl_inter
0000000000b5a226 S _ff_h263_inter_MCBPC_bits
0000000000b5a20a S _ff_h263_inter_MCBPC_code
0000000001750b08 S _ff_h263_inter_MCBPC_vlc
0000000000b5a201 S _ff_h263_intra_MCBPC_bits
0000000000b5a1f8 S _ff_h263_intra_MCBPC_code
0000000001750b20 S _ff_h263_intra_MCBPC_vlc
000000000048e920 T _ff_h263_loop_filter
0000000000b5a8f8 S _ff_h263_loop_filter_strength
0000000000b5a242 S _ff_h263_mbtype_b_tab
0000000000f35d70 D _ff_h263_muxer
0000000001750b38 S _ff_h263_mv_vlc
0000000000f0dbe0 D _ff_h263_parser
0000000000b5a850 S _ff_h263_pixel_aspect
000000000048eba4 T _ff_h263_pred_acdc
000000000048e86c T _ff_h263_pred_dc
000000000048ed88 T _ff_h263_pred_motion
000000000054a268 T _ff_h263_resync
0000000000ec8f40 S _ff_h263_rfc2190_dynamic_handler
0000000000f0dc20 D _ff_h263_rl_inter
000000000054a070 T _ff_h263_show_pict_info
000000000048e6f8 T _ff_h263_update_motion_val
00000000009d46c4 T _ff_h263dsp_init
0000000000f0f7f0 D _ff_h263i_decoder
0000000000f0dfc0 D _ff_h263p_decoder
0000000000f14040 D _ff_h263p_encoder
0000000000490494 T _ff_h2645_extract_rbsp
0000000000490760 T _ff_h2645_packet_split
0000000000490eb4 T _ff_h2645_packet_uninit
00000000004b983c T _ff_h264_alloc_tables
0000000000b5dd0e S _ff_h264_b_mb_type_info
0000000000b5dd6a S _ff_h264_b_sub_mb_type_info
00000000004aecd4 T _ff_h264_build_ref_list
0000000000b1a6a0 S _ff_h264_cabac_tables
00000000004aad70 T _ff_h264_check_intra4x4_pred_mode
00000000004aae64 T _ff_h264_check_intra_pred_mode
00000000004c4150 T _ff_h264_chroma422_dc_dequant_idct_10_c
00000000004c48ec T _ff_h264_chroma422_dc_dequant_idct_12_c
00000000004c5088 T _ff_h264_chroma422_dc_dequant_idct_14_c
00000000004c3190 T _ff_h264_chroma422_dc_dequant_idct_8_c
00000000004c39b4 T _ff_h264_chroma422_dc_dequant_idct_9_c
0000000000b5dc79 S _ff_h264_chroma422_dc_scan
00000000004c4214 T _ff_h264_chroma_dc_dequant_idct_10_c
00000000004c49b0 T _ff_h264_chroma_dc_dequant_idct_12_c
00000000004c514c T _ff_h264_chroma_dc_dequant_idct_14_c
00000000004c327c T _ff_h264_chroma_dc_dequant_idct_8_c
00000000004c3a78 T _ff_h264_chroma_dc_dequant_idct_9_c
0000000000b5dc75 S _ff_h264_chroma_dc_scan
0000000000b5de94 S _ff_h264_chroma_qp
00000000004ab308 T _ff_h264_decode_extradata
00000000009d46dc T _ff_h264_decode_init_vlc
0000000000491078 T _ff_h264_decode_mb_cabac
0000000000497444 T _ff_h264_decode_mb_cavlc
00000000004adeb4 T _ff_h264_decode_picture_parameter_set
00000000004af900 T _ff_h264_decode_ref_pic_list_reordering
00000000004b06cc T _ff_h264_decode_ref_pic_marking
00000000004ad034 T _ff_h264_decode_seq_parameter_set
0000000000f0e0f0 D _ff_h264_decoder
0000000000f2bc90 D _ff_h264_demuxer
0000000000b5dd9e S _ff_h264_dequant4_coeff_init
0000000000b5ddc0 S _ff_h264_dequant8_coeff_init
0000000000b5ddb0 S _ff_h264_dequant8_coeff_init_scan
000000000049c11c T _ff_h264_direct_dist_scale_factor
000000000049c368 T _ff_h264_direct_ref_list_init
00000000004b95ec T _ff_h264_draw_horiz_band
0000000000ec8f88 S _ff_h264_dynamic_handler
00000000004b48e8 T _ff_h264_execute_decode_slices
00000000004afc84 T _ff_h264_execute_ref_pic_marking
00000000004aced0 T _ff_h264_field_end
000000000049fa5c T _ff_h264_filter_mb
000000000049da68 T _ff_h264_filter_mb_fast
00000000004b9d50 T _ff_h264_flush_change
00000000004b96f0 T _ff_h264_free_tables
000000000049d8e8 T _ff_h264_get_level
00000000004ab834 T _ff_h264_get_profile
00000000004b4bc4 T _ff_h264_get_slice_type
0000000000b5dc45 S _ff_h264_golomb_to_inter_cbp
0000000000b5dc15 S _ff_h264_golomb_to_intra4x4_cbp
0000000000b5dc10 S _ff_h264_golomb_to_pict_type
000000000049d930 T _ff_h264_guess_level
000000000037ce74 T _ff_h264_h_loop_filter_chroma422_intra_neon
000000000037cc14 T _ff_h264_h_loop_filter_chroma422_neon
000000000037cda0 T _ff_h264_h_loop_filter_chroma_intra_neon
000000000037ccec T _ff_h264_h_loop_filter_chroma_mbaff_intra_neon
000000000037cae8 T _ff_h264_h_loop_filter_chroma_neon
000000000037c744 T _ff_h264_h_loop_filter_luma_intra_neon
000000000037c324 T _ff_h264_h_loop_filter_luma_neon
000000000080fa60 T _ff_h264_handle_aggregated_packet
000000000080fb98 T _ff_h264_handle_frag_packet
00000000004a2990 T _ff_h264_hl_decode_mb
0000000000b5dc82 S _ff_h264_i_mb_type_info
00000000004c3ef4 T _ff_h264_idct8_add4_10_c
00000000004c4690 T _ff_h264_idct8_add4_12_c
00000000004c4e2c T _ff_h264_idct8_add4_14_c
00000000004c2e18 T _ff_h264_idct8_add4_8_c
00000000004c3758 T _ff_h264_idct8_add4_9_c
000000000037dff4 T _ff_h264_idct8_add4_neon
00000000004c3b4c T _ff_h264_idct8_add_10_c
00000000004c42e8 T _ff_h264_idct8_add_12_c
00000000004c4a84 T _ff_h264_idct8_add_14_c
00000000004c295c T _ff_h264_idct8_add_8_c
00000000004c33b0 T _ff_h264_idct8_add_9_c
000000000037dcc4 T _ff_h264_idct8_add_neon
00000000004c3dfc T _ff_h264_idct8_dc_add_10_c
00000000004c4598 T _ff_h264_idct8_dc_add_12_c
00000000004c4d34 T _ff_h264_idct8_dc_add_14_c
00000000004c2cc0 T _ff_h264_idct8_dc_add_8_c
00000000004c3660 T _ff_h264_idct8_dc_add_9_c
000000000037df58 T _ff_h264_idct8_dc_add_neon
00000000004c3e4c T _ff_h264_idct_add16_10_c
00000000004c45e8 T _ff_h264_idct_add16_12_c
00000000004c4d84 T _ff_h264_idct_add16_14_c
00000000004c2d20 T _ff_h264_idct_add16_8_c
00000000004c36b0 T _ff_h264_idct_add16_9_c
000000000037db5c T _ff_h264_idct_add16_neon
00000000004c3ea4 T _ff_h264_idct_add16intra_10_c
00000000004c4640 T _ff_h264_idct_add16intra_12_c
00000000004c4ddc T _ff_h264_idct_add16intra_14_c
00000000004c2dbc T _ff_h264_idct_add16intra_8_c
00000000004c3708 T _ff_h264_idct_add16intra_9_c
000000000037dbc8 T _ff_h264_idct_add16intra_neon
00000000004c3f54 T _ff_h264_idct_add8_10_c
00000000004c46f0 T _ff_h264_idct_add8_12_c
00000000004c4e8c T _ff_h264_idct_add8_14_c
00000000004c3fc4 T _ff_h264_idct_add8_422_10_c
00000000004c4760 T _ff_h264_idct_add8_422_12_c
00000000004c4efc T _ff_h264_idct_add8_422_14_c
00000000004c2f5c T _ff_h264_idct_add8_422_8_c
00000000004c3828 T _ff_h264_idct_add8_422_9_c
00000000004c2eac T _ff_h264_idct_add8_8_c
00000000004c37b8 T _ff_h264_idct_add8_9_c
000000000037dc34 T _ff_h264_idct_add8_neon
00000000004c3a7c T _ff_h264_idct_add_10_c
00000000004c4218 T _ff_h264_idct_add_12_c
00000000004c49b4 T _ff_h264_idct_add_14_c
00000000004c281c T _ff_h264_idct_add_8_c
00000000004c32e0 T _ff_h264_idct_add_9_c
000000000037da48 T _ff_h264_idct_add_neon
00000000004c3dac T _ff_h264_idct_dc_add_10_c
00000000004c4548 T _ff_h264_idct_dc_add_12_c
00000000004c4ce4 T _ff_h264_idct_dc_add_14_c
00000000004c2c60 T _ff_h264_idct_dc_add_8_c
00000000004c3610 T _ff_h264_idct_dc_add_9_c
000000000037db10 T _ff_h264_idct_dc_add_neon
0000000000490fc8 T _ff_h264_init_cabac_states
00000000004ab120 T _ff_h264_init_poc
00000000004c408c T _ff_h264_luma_dc_dequant_idct_10_c
00000000004c4828 T _ff_h264_luma_dc_dequant_idct_12_c
00000000004c4fc4 T _ff_h264_luma_dc_dequant_idct_14_c
00000000004c3094 T _ff_h264_luma_dc_dequant_idct_8_c
00000000004c38f0 T _ff_h264_luma_dc_dequant_idct_9_c
0000000000b5e110 S _ff_h264_mb_sizes
0000000000e8f368 S _ff_h264_metadata_bsf
0000000000e900c8 S _ff_h264_mp4toannexb_bsf
0000000000f35e38 D _ff_h264_muxer
0000000000b5dcea S _ff_h264_p_mb_type_info
0000000000b5dcfe S _ff_h264_p_sub_mb_type_info
000000000080f98c T _ff_h264_parse_framesize
00000000004aaf28 T _ff_h264_parse_ref_count
000000000080f810 T _ff_h264_parse_sprop_parameter_sets
0000000000f0e0b0 D _ff_h264_parser
000000000049c7cc T _ff_h264_pred_direct_motion
00000000009d56fc T _ff_h264_pred_init
00000000009c07e0 T _ff_h264_pred_init_aarch64
00000000004aa944 T _ff_h264_pred_weight_table
00000000004acfc4 T _ff_h264_ps_uninit
0000000000b5de3c S _ff_h264_quant_div6
0000000000b5dde4 S _ff_h264_quant_rem6
00000000004b23ec T _ff_h264_queue_decode_slice
0000000000e90108 S _ff_h264_redundant_pps_bsf
00000000004acbdc T _ff_h264_ref_picture
00000000004afb18 T _ff_h264_remove_all_refs
00000000004b0fd8 T _ff_h264_sei_decode
00000000004b0c88 T _ff_h264_sei_process_picture_timing
00000000004b1864 T _ff_h264_sei_stereo_mode
00000000004b0c08 T _ff_h264_sei_uninit
00000000004ace6c T _ff_h264_set_erpic
00000000004b9a08 T _ff_h264_slice_context_init
00000000004acb3c T _ff_h264_unref_picture
00000000004b1a80 T _ff_h264_update_thread_context
000000000037cc60 T _ff_h264_v_loop_filter_chroma_intra_neon
000000000037ca24 T _ff_h264_v_loop_filter_chroma_neon
000000000037c56c T _ff_h264_v_loop_filter_luma_intra_neon
000000000037c1b4 T _ff_h264_v_loop_filter_luma_neon
00000000009d4aec T _ff_h264chroma_init
00000000009c060c T _ff_h264chroma_init_aarch64
00000000009d4f00 T _ff_h264dsp_init
00000000009c0678 T _ff_h264dsp_init_aarch64
00000000009d7070 T _ff_h264qpel_init
00000000009c092c T _ff_h264qpel_init_aarch64
00000000004f3a58 T _ff_h265_get_level
00000000004f3a98 T _ff_h265_get_profile
00000000004f3bd8 T _ff_h265_guess_level
0000000000f0e1f0 D _ff_hap_decoder
00000000009d7e9c T _ff_hap_free_context
00000000004f3e58 T _ff_hap_parse_section_header
00000000004f3dd0 T _ff_hap_set_chunk_count
0000000000e929a0 S _ff_hapqa_extract_bsf
0000000000f2bd38 D _ff_hash_muxer
0000000000f0e2e0 D _ff_hca_decoder
0000000000f2c120 D _ff_hca_demuxer
0000000000f0e3d0 D _ff_hcom_decoder
0000000000f2c1c8 D _ff_hcom_demuxer
000000000085fca0 T _ff_hcscale_fast_c
0000000000f2c270 D _ff_hds_muxer
0000000000781a3c T _ff_hevc_annexb2mp4
0000000000781b58 T _ff_hevc_annexb2mp4_buf
000000000050028c T _ff_hevc_bump_frame
00000000004f5550 T _ff_hevc_cabac_init
00000000004f60bc T _ff_hevc_cbf_cb_cr_decode
00000000004f60c8 T _ff_hevc_cbf_luma_decode
00000000004ffdb4 T _ff_hevc_clear_refs
00000000004ff6e0 T _ff_hevc_compute_poc
00000000004f5c58 T _ff_hevc_cu_chroma_qp_offset_flag
00000000004f5c68 T _ff_hevc_cu_chroma_qp_offset_idx
00000000004f5b80 T _ff_hevc_cu_qp_delta_abs
00000000004f5c54 T _ff_hevc_cu_qp_delta_sign_flag
00000000004f5af0 T _ff_hevc_cu_transquant_bypass_flag_decode
00000000004f797c T _ff_hevc_deblocking_boundary_strengths
00000000004fbc34 T _ff_hevc_decode_extradata
00000000004fe8b4 T _ff_hevc_decode_nal_pps
0000000000500b14 T _ff_hevc_decode_nal_sei
00000000004fe678 T _ff_hevc_decode_nal_sps
00000000004fcd6c T _ff_hevc_decode_nal_vps
00000000004fc988 T _ff_hevc_decode_short_term_rps
0000000000f0e500 D _ff_hevc_decoder
0000000000f2c338 D _ff_hevc_demuxer
0000000000b5efd9 S _ff_hevc_diag_scan4x4_x
0000000000b5efe9 S _ff_hevc_diag_scan4x4_y
0000000000b5eff9 S _ff_hevc_diag_scan8x8_x
0000000000b5f039 S _ff_hevc_diag_scan8x8_y
00000000005085c0 T _ff_hevc_dsp_init
0000000000ec8fd0 S _ff_hevc_dynamic_handler
00000000004f5aec T _ff_hevc_end_of_slice_flag_decode
0000000000b5f3f0 S _ff_hevc_epel_filters
00000000004ffdf0 T _ff_hevc_flush_dpb
0000000000500a80 T _ff_hevc_frame_nb_refs
000000000050069c T _ff_hevc_frame_rps
00000000004ffd84 T _ff_hevc_get_ref_list
00000000004f814c T _ff_hevc_hls_filter
00000000004f9784 T _ff_hevc_hls_filters
00000000004f74b4 T _ff_hevc_hls_mvd_coding
00000000004f613c T _ff_hevc_hls_residual_coding
00000000004f5fa4 T _ff_hevc_inter_pred_idc_decode
00000000004f5f04 T _ff_hevc_intra_chroma_pred_mode_decode
00000000004f60dc T _ff_hevc_log2_res_scale_abs
00000000004fa340 T _ff_hevc_luma_mv_merge_mode
00000000004fad50 T _ff_hevc_luma_mv_mvp_mode
00000000004f5f94 T _ff_hevc_merge_flag_decode
00000000004f5f44 T _ff_hevc_merge_idx_decode
0000000000e91858 S _ff_hevc_metadata_bsf
0000000000e92ae0 S _ff_hevc_mp4toannexb_bsf
00000000004f5e88 T _ff_hevc_mpm_idx_decode
0000000000f35f00 D _ff_hevc_muxer
00000000004f6090 T _ff_hevc_mvp_lx_flag_decode
00000000004f60a0 T _ff_hevc_no_residual_syntax_flag_decode
00000000005000c0 T _ff_hevc_output_frame
00000000004fd52c T _ff_hevc_parse_sps
0000000000f0e4c0 D _ff_hevc_parser
00000000004f5d5c T _ff_hevc_part_mode_decode
00000000004f5e74 T _ff_hevc_pcm_flag_decode
0000000000b5f34a S _ff_hevc_pel_weight
000000000051aae0 T _ff_hevc_pred_init
00000000004f5cc4 T _ff_hevc_pred_mode_decode
00000000004f5e78 T _ff_hevc_prev_intra_luma_pred_flag_decode
00000000004ff660 T _ff_hevc_ps_uninit
0000000000b5f410 S _ff_hevc_qpel_filters
00000000004f5ffc T _ff_hevc_ref_idx_lx_decode
00000000004f5ec0 T _ff_hevc_rem_intra_luma_pred_mode_decode
00000000004f6128 T _ff_hevc_res_scale_sign_flag
00000000005013b8 T _ff_hevc_reset_sei
00000000004f5a18 T _ff_hevc_sao_band_position_decode
00000000004f5ac0 T _ff_hevc_sao_eo_class_decode
00000000004f58c0 T _ff_hevc_sao_merge_flag_decode
00000000004f5a5c T _ff_hevc_sao_offset_abs_decode
00000000004f5abc T _ff_hevc_sao_offset_sign_decode
00000000004f5990 T _ff_hevc_sao_type_idx_decode
00000000004f54e0 T _ff_hevc_save_states
00000000004fa278 T _ff_hevc_set_neighbour_available
00000000004ffe2c T _ff_hevc_set_new_ref
00000000004f7860 T _ff_hevc_set_qPy
00000000004f5b00 T _ff_hevc_skip_flag_decode
0000000000500398 T _ff_hevc_slice_rpl
00000000004f5cd4 T _ff_hevc_split_coding_unit_flag_decode
00000000004f60b0 T _ff_hevc_split_transform_flag_decode
00000000004ffd14 T _ff_hevc_unref_frame
00000000008415c0 T _ff_hex_to_data
00000000002c1114 T _ff_hflip_init
0000000000f2c3e0 D _ff_hls_demuxer
0000000000f2c488 D _ff_hls_muxer
0000000000ebac08 S _ff_hls_protocol
000000000078c52c T _ff_hls_write_audio_rendition
000000000078cb40 T _ff_hls_write_end_list
000000000078c8c4 T _ff_hls_write_file_entry
000000000078c858 T _ff_hls_write_init_file
000000000078c764 T _ff_hls_write_playlist_header
000000000078c4ec T _ff_hls_write_playlist_version
000000000078c620 T _ff_hls_write_stream_info
000000000078c5a8 T _ff_hls_write_subtitle_rendition
0000000000f0e5f0 D _ff_hnm4_video_decoder
0000000000f2c550 D _ff_hnm_demuxer
00000000009d8b6c T _ff_hpeldsp_init
00000000009c0c18 T _ff_hpeldsp_init_aarch64
0000000000b64718 S _ff_hq_ac_skips
0000000000b64a02 S _ff_hq_ac_syms
0000000000f0e6e0 D _ff_hq_hqa_decoder
00000000009d8d78 T _ff_hq_init_vlcs
0000000000e93238 S _ff_hq_profile
0000000000e92e38 S _ff_hq_quants
00000000009d8dfc T _ff_hqdsp_init
0000000000e93518 S _ff_hqx_ac
0000000000f0e7d0 D _ff_hqx_decoder
00000000009d8e8c T _ff_hqx_init_vlcs
00000000009d8e7c T _ff_hqxdsp_init
000000000085cea4 T _ff_hscale_8_to_15_neon
0000000000530274 T _ff_htmlmarkup_to_ass
0000000000790ee0 T _ff_http_auth_create_response
0000000000790bb4 T _ff_http_auth_handle_header
000000000078e8e0 T _ff_http_averror
000000000078d7ac T _ff_http_do_new_request
000000000078d7b4 T _ff_http_do_new_request2
000000000078d74c T _ff_http_get_shutdown_status
000000000078d6fc T _ff_http_init_auth_state
00000000007ecb14 T _ff_http_match_no_proxy
0000000000ebad20 S _ff_http_protocol
0000000000ebade0 S _ff_httpproxy_protocol
0000000000530dec T _ff_huff_build_tree
0000000000530afc T _ff_huff_gen_len_table
0000000001751828 S _ff_huff_quad_vlc
0000000001751858 S _ff_huff_vlc
00000000009d8f70 T _ff_huffyuv_alloc_temp
00000000009d9004 T _ff_huffyuv_common_end
00000000009d8fc8 T _ff_huffyuv_common_init
0000000000f0e8c0 D _ff_huffyuv_decoder
0000000000f0eb90 D _ff_huffyuv_encoder
0000000000531300 T _ff_huffyuv_generate_bits_table
00000000009d9904 T _ff_huffyuvdsp_init
00000000009d9f8c T _ff_huffyuvencdsp_init
00000000001fcbc0 T _ff_hwframe_map_create
00000000001fce30 T _ff_hwframe_map_replace
0000000000f0eaa0 D _ff_hymt_decoder
000000000085fc28 T _ff_hyscale_fast_c
0000000000f0f130 D _ff_iac_decoder
0000000000ebb7b8 S _ff_icecast_protocol
0000000000f2c5f8 D _ff_ico_demuxer
0000000000f2c6a0 D _ff_ico_muxer
0000000000ebbb38 S _ff_id3v1_genre_str
000000000079233c T _ff_id3v1_read
0000000000ebc138 S _ff_id3v2_34_metadata_conv
0000000000cc49b0 S _ff_id3v2_3_tags
0000000000ebc238 S _ff_id3v2_4_metadata_conv
0000000000cc4978 S _ff_id3v2_4_tags
0000000000794c54 T _ff_id3v2_finish
0000000000793018 T _ff_id3v2_free_extra_meta
0000000000792590 T _ff_id3v2_match
0000000000cc49cc S _ff_id3v2_mime_tags
00000000007930f0 T _ff_id3v2_parse_apic
0000000000793208 T _ff_id3v2_parse_chapters
0000000000793484 T _ff_id3v2_parse_priv
0000000000793328 T _ff_id3v2_parse_priv_dict
0000000000ebc2b8 S _ff_id3v2_picture_types
0000000000792ff4 T _ff_id3v2_read
0000000000792648 T _ff_id3v2_read_dict
0000000000794264 T _ff_id3v2_start
0000000000792608 T _ff_id3v2_tag_len
0000000000cc48f4 S _ff_id3v2_tags
00000000007949c8 T _ff_id3v2_write_apic
00000000007942d0 T _ff_id3v2_write_metadata
0000000000794cf8 T _ff_id3v2_write_simple
0000000000f0ed70 D _ff_idcin_decoder
0000000000f2c768 D _ff_idcin_demuxer
00000000009da244 T _ff_idctdsp_init
00000000009c0d38 T _ff_idctdsp_init_aarch64
00000000002ce45c T _ff_idet_filter_line_c
00000000002ce498 T _ff_idet_filter_line_c_16bit
0000000000f07260 D _ff_idf_decoder
0000000000f289e0 D _ff_idf_demuxer
0000000000f2c980 D _ff_iff_demuxer
0000000000f0ee60 D _ff_iff_ilbm_decoder
0000000000f2ca28 D _ff_ifv_demuxer
000000000053b800 T _ff_iir_filter
000000000053bb54 T _ff_iir_filter_flt
00000000009daa08 T _ff_iir_filter_free_coeffsp
00000000009daa4c T _ff_iir_filter_free_statep
000000000053bdc4 T _ff_iir_filter_init
00000000009da610 T _ff_iir_filter_init_coeffs
00000000009daa3c T _ff_iir_filter_init_state
0000000000f0ef50 D _ff_ilbc_decoder
0000000000f2cad0 D _ff_ilbc_demuxer
0000000000ec9018 S _ff_ilbc_dynamic_handler
0000000000f2cb78 D _ff_ilbc_muxer
0000000000f2cc40 D _ff_image2_alias_pix_demuxer
0000000000f2cce8 D _ff_image2_brender_pix_demuxer
0000000000f2cd90 D _ff_image2_demuxer
0000000000f2e140 D _ff_image2_muxer
0000000000f2ce38 D _ff_image2pipe_demuxer
0000000000f2e208 D _ff_image2pipe_muxer
0000000000f2cee0 D _ff_image_bmp_pipe_demuxer
0000000000f2cf88 D _ff_image_cri_pipe_demuxer
0000000000f2d030 D _ff_image_dds_pipe_demuxer
0000000000f2d0d8 D _ff_image_dpx_pipe_demuxer
0000000000f2d180 D _ff_image_exr_pipe_demuxer
0000000000f2d228 D _ff_image_gif_pipe_demuxer
0000000000f2d2d0 D _ff_image_j2k_pipe_demuxer
0000000000f2d378 D _ff_image_jpeg_pipe_demuxer
0000000000f2d420 D _ff_image_jpegls_pipe_demuxer
0000000000f2d4c8 D _ff_image_pam_pipe_demuxer
0000000000f2d570 D _ff_image_pbm_pipe_demuxer
0000000000f2d618 D _ff_image_pcx_pipe_demuxer
0000000000f2d6c0 D _ff_image_pgm_pipe_demuxer
0000000000f2d768 D _ff_image_pgmyuv_pipe_demuxer
0000000000f2d810 D _ff_image_pgx_pipe_demuxer
0000000000f2d8b8 D _ff_image_photocd_pipe_demuxer
0000000000f2d960 D _ff_image_pictor_pipe_demuxer
0000000000f2da08 D _ff_image_png_pipe_demuxer
0000000000f2dab0 D _ff_image_ppm_pipe_demuxer
0000000000f2db58 D _ff_image_psd_pipe_demuxer
0000000000f2dc00 D _ff_image_qdraw_pipe_demuxer
0000000000f2dca8 D _ff_image_sgi_pipe_demuxer
0000000000f2dd50 D _ff_image_sunrast_pipe_demuxer
0000000000f2ddf8 D _ff_image_svg_pipe_demuxer
0000000000f2dea0 D _ff_image_tiff_pipe_demuxer
0000000000f2df48 D _ff_image_webp_pipe_demuxer
0000000000f2dff0 D _ff_image_xpm_pipe_demuxer
0000000000f2e098 D _ff_image_xwd_pipe_demuxer
0000000000f0f040 D _ff_imc_decoder
00000000005ae5c8 T _ff_imdct36_blocks_fixed
00000000005aedd4 T _ff_imdct36_blocks_float
000000000056dfe0 T _ff_imdct_calc_c
000000000056dc04 T _ff_imdct_calc_c_fixed_32
0000000000381310 T _ff_imdct_calc_neon
000000000056deb8 T _ff_imdct_half_c
000000000056daa4 T _ff_imdct_half_c_fixed_32
00000000003811ac T _ff_imdct_half_neon
0000000000ebce18 S _ff_img2pipe_options
0000000000ebc980 S _ff_img_options
0000000000797e6c T _ff_img_read_header
0000000000798490 T _ff_img_read_packet
0000000000ebc510 S _ff_img_tags
0000000000f0f230 D _ff_imm4_decoder
0000000000f0f330 D _ff_imm5_decoder
0000000000e939e8 S _ff_imx_dump_header_bsf
0000000000f0f420 D _ff_indeo2_decoder
0000000000f0f520 D _ff_indeo3_decoder
0000000000f0f610 D _ff_indeo4_decoder
0000000000f0f700 D _ff_indeo5_decoder
0000000000ccd1dc S _ff_index_guid
000000000083c67c T _ff_index_search_timestamp
0000000000f2e2d0 D _ff_ingenient_demuxer
00000000009e2d88 T _ff_init_2d_vlc_rl
00000000005b5910 T _ff_init_block_index
00000000003ddefc T _ff_init_cabac_decoder
00000000003ddebc T _ff_init_cabac_encoder
000000000085f73c T _ff_init_desc_cfmt_convert
000000000085f8e4 T _ff_init_desc_chscale
000000000085f2d4 T _ff_init_desc_fmt_convert
000000000085f524 T _ff_init_desc_hscale
000000000085fb40 T _ff_init_desc_no_chr
00000000009ce2d8 T _ff_init_dsd_data
00000000009d01f4 T _ff_init_ff_cos_tabs
00000000009cff98 T _ff_init_ff_cos_tabs_fixed_32
00000000009f11c8 T _ff_init_ff_sine_windows
00000000009f1278 T _ff_init_ff_sine_windows_fixed
000000000087ddcc T _ff_init_filters
000000000085f1ec T _ff_init_gamma_convert
00000000005874d8 T _ff_init_me
00000000005b88ec T _ff_init_qscale_tab
00000000009edf7c T _ff_init_range_decoder
00000000009edf5c T _ff_init_range_encoder
00000000009da10c T _ff_init_scantable
00000000009da164 T _ff_init_scantable_permutation
000000000087dc8c T _ff_init_slice_from_src
00000000009e12dc T _ff_init_uni_ac_vlc
00000000003da454 T _ff_init_vlc_from_lengths
00000000003d9c74 T _ff_init_vlc_sparse
0000000000890be4 T _ff_init_vscale
000000000089151c T _ff_init_vscale_pfn
000000000025f7f8 T _ff_inlink_acknowledge_status
000000000025f874 T _ff_inlink_check_available_frame
000000000025f894 T _ff_inlink_check_available_samples
000000000025f8c0 T _ff_inlink_consume_frame
000000000025f940 T _ff_inlink_consume_samples
000000000025fd5c T _ff_inlink_evaluate_timeline_at_frame
000000000025fb5c T _ff_inlink_make_frame_writable
000000000025fb54 T _ff_inlink_peek_frame
000000000025fcb4 T _ff_inlink_process_commands
000000000025f86c T _ff_inlink_queued_frames
000000000025f884 T _ff_inlink_queued_samples
000000000025fe14 T _ff_inlink_request_frame
000000000025fe38 T _ff_inlink_set_status
000000000025dc00 T _ff_insert_pad
000000000037ab64 T _ff_int32_to_float_fmul_array8_neon
000000000037ab2c T _ff_int32_to_float_fmul_scalar_neon
000000000066ac90 T _ff_int_from_list_or_default
0000000000609b14 T _ff_int_to_int16
0000000000544c6c T _ff_intel_h263_decode_picture_header
000000000177e8a8 S _ff_inter_intra_vlc
0000000000b5a466 S _ff_inter_level
0000000000b5a4cc S _ff_inter_run
0000000000b5a2ca S _ff_inter_vlc
00000000007de098 T _ff_interleave_add_packet
000000000085d008 T _ff_interleave_bytes_neon
00000000007de2a4 T _ff_interleave_packet_per_dts
0000000000b5975e S _ff_interleaved_dirac_golomb_vlc_code
0000000000b5945e S _ff_interleaved_golomb_vlc_len
00000000007de6cc T _ff_interleaved_peek
0000000000b5965e S _ff_interleaved_se_golomb_vlc_code
0000000000b5955e S _ff_interleaved_ue_golomb_vlc_code
0000000000609c54 T _ff_interp
0000000000f0f8e0 D _ff_interplay_acm_decoder
0000000000f098e0 D _ff_interplay_dpcm_decoder
0000000000f0f9d0 D _ff_interplay_video_decoder
00000000009dbf7c T _ff_intrax8_common_end
00000000009dbd0c T _ff_intrax8_common_init
0000000000548550 T _ff_intrax8_decode_picture
00000000009dbff8 T _ff_intrax8dsp_init
0000000000afd840 S _ff_inv_aanscales
0000000000babc60 S _ff_inverse
000000000079a004 T _ff_ip_check_source_lists
000000000079a290 T _ff_ip_parse_blocks
000000000079a21c T _ff_ip_parse_sources
000000000079a298 T _ff_ip_reset_filters
000000000079a0e4 T _ff_ip_resolve_host
0000000000f2e378 D _ff_ipmovie_demuxer
0000000000f30518 D _ff_ipod_muxer
0000000000f12a70 D _ff_ipu_decoder
0000000000f2e420 D _ff_ipu_demuxer
0000000000f0fad0 D _ff_ipu_parser
0000000000f2e4c8 D _ff_ircam_demuxer
0000000000f2e570 D _ff_ircam_muxer
0000000000609d48 T _ff_irms
0000000000842778 T _ff_is_http_proto
000000000083b8a4 T _ff_is_intra_only
00000000007ec01c T _ff_is_multicast_address
0000000000f305e0 D _ff_ismv_muxer
00000000008473d4 T _ff_isom_get_vpcc_features
000000000074f1d8 T _ff_isom_write_av1c
00000000007504c8 T _ff_isom_write_avcc
0000000000781bf0 T _ff_isom_write_hvcc
00000000008476d0 T _ff_isom_write_vpcc
0000000000f2e638 D _ff_iss_demuxer
0000000000f2e6e0 D _ff_iv8_demuxer
0000000000f2e788 D _ff_ivf_demuxer
0000000000f2e830 D _ff_ivf_muxer
000000000054ffd8 T _ff_ivi_col_haar4
000000000054fcd8 T _ff_ivi_col_haar8
0000000000550a64 T _ff_ivi_col_slant4
00000000005507ac T _ff_ivi_col_slant8
0000000000550970 T _ff_ivi_dc_col_slant
0000000000550074 T _ff_ivi_dc_haar_2d
0000000000550748 T _ff_ivi_dc_row_slant
0000000000550568 T _ff_ivi_dc_slant_2d
000000000054da68 T _ff_ivi_dec_huff_desc
00000000009dccc8 T _ff_ivi_decode_close
000000000054dd88 T _ff_ivi_decode_frame
0000000000ba9914 S _ff_ivi_direct_scan_4x4
0000000000ba98d4 S _ff_ivi_horizontal_scan_8x8
00000000009dc6e0 T _ff_ivi_init_planes
00000000009dc624 T _ff_ivi_init_static_vlc
00000000009dc9d4 T _ff_ivi_init_tiles
000000000054fe10 T _ff_ivi_inverse_haar_4x4
000000000054f9ec T _ff_ivi_inverse_haar_8x8
00000000005503f4 T _ff_ivi_inverse_slant_4x4
00000000005500bc T _ff_ivi_inverse_slant_8x8
0000000000551000 T _ff_ivi_mc_4x4_delta
0000000000550e88 T _ff_ivi_mc_4x4_no_delta
0000000000550d10 T _ff_ivi_mc_8x8_delta
0000000000550b98 T _ff_ivi_mc_8x8_no_delta
0000000000551310 T _ff_ivi_mc_avg_4x4_delta
0000000000551288 T _ff_ivi_mc_avg_4x4_no_delta
0000000000551200 T _ff_ivi_mc_avg_8x8_delta
0000000000551178 T _ff_ivi_mc_avg_8x8_no_delta
0000000000550b64 T _ff_ivi_put_dc_pixel_8x8
0000000000550b24 T _ff_ivi_put_pixels_8x8
000000000054f554 T _ff_ivi_recompose53
000000000054f8bc T _ff_ivi_recompose_haar
000000000054ff64 T _ff_ivi_row_haar4
000000000054fc24 T _ff_ivi_row_haar8
00000000005509c0 T _ff_ivi_row_slant4
00000000005505b4 T _ff_ivi_row_slant8
0000000000ba9924 S _ff_ivi_rvmap_tabs
0000000000ba9894 S _ff_ivi_vertical_scan_8x8
0000000000f36c50 D _ff_ivr_demuxer
000000000056143c T _ff_j_rev_dct
0000000000562088 T _ff_j_rev_dct1
000000000056202c T _ff_j_rev_dct2
0000000000561dd8 T _ff_j_rev_dct4
0000000000f0fc10 D _ff_jacosub_decoder
0000000000f2e8f8 D _ff_jacosub_demuxer
0000000000f2e9a0 D _ff_jacosub_muxer
0000000000557168 T _ff_jpeg2000_cleanup
0000000000f0fd40 D _ff_jpeg2000_decoder
000000000055d448 T _ff_jpeg2000_dwt_init
0000000000f0fb20 D _ff_jpeg2000_encoder
00000000005565e4 T _ff_jpeg2000_init_component
00000000009dd4b8 T _ff_jpeg2000_init_tier1_luts
0000000000f0fd00 D _ff_jpeg2000_parser
0000000000557030 T _ff_jpeg2000_reinit
00000000005564fc T _ff_jpeg2000_set_significance
0000000001750b50 S _ff_jpeg2000_sgnctxno_lut
0000000001750c50 S _ff_jpeg2000_sigctxno_lut
0000000001751050 S _ff_jpeg2000_xorbit_lut
00000000009dd72c T _ff_jpeg2000dsp_init
0000000000ec9060 S _ff_jpeg_dynamic_handler
0000000000555ef8 T _ff_jpeg_fdct_islow_10
0000000000555a68 T _ff_jpeg_fdct_islow_8
000000000055ed8c T _ff_jpegls_decode_lse
000000000055f0c0 T _ff_jpegls_decode_picture
0000000000f0fe40 D _ff_jpegls_decoder
0000000000f0ff30 D _ff_jpegls_encoder
000000000055eb38 T _ff_jpegls_init_state
000000000055ebf0 T _ff_jpegls_reset_coding_parameters
00000000005620c8 T _ff_jref_idct_add
000000000056209c T _ff_jref_idct_put
0000000000f10020 D _ff_jv_decoder
0000000000f2ea68 D _ff_jv_demuxer
0000000000aeb394 S _ff_k_to_i_20
0000000000aeb3db S _ff_k_to_i_34
00000000009dd84c T _ff_kbd_window_init
00000000009dd98c T _ff_kbd_window_init_fixed
0000000000f10110 D _ff_kgv1_decoder
0000000000f10200 D _ff_kmvc_decoder
0000000000f2aef0 D _ff_kux_demuxer
0000000000f2eb10 D _ff_kvag_demuxer
0000000000f2ebb8 D _ff_kvag_muxer
0000000000564ea0 T _ff_lag_rac_init
0000000000f102f0 D _ff_lagarith_decoder
0000000000f2ec80 D _ff_latm_muxer
0000000000f3b428 D _ff_lavfi_demuxer
0000000000e360f0 S _ff_layer_funcs
0000000000f10510 D _ff_libdav1d_decoder
0000000000f10600 D _ff_libx264_encoder
0000000000f106f0 D _ff_libx264rgb_encoder
0000000000f107e0 D _ff_libx265_encoder
00000000002e965c T _ff_line_noise_avg_c
00000000002e9624 T _ff_line_noise_c
0000000000e81bb8 S _ff_list_bsf
00000000007ec0d8 T _ff_listen
00000000007ec280 T _ff_listen_bind
00000000007ec2d4 T _ff_listen_connect
0000000000f2ae48 D _ff_live_flv_demuxer
0000000000f108d0 D _ff_ljpeg_encoder
00000000009df9c0 T _ff_llauddsp_init
0000000000568554 T _ff_llviddsp_init
00000000009df9d8 T _ff_llvidencdsp_init
0000000000f2ed48 D _ff_lmlm4_demuxer
000000000027cdac T _ff_load_image
0000000000f2edf0 D _ff_loas_demuxer
000000000083a0b4 T _ff_lock_avformat
0000000000f109c0 D _ff_loco_decoder
0000000000414c08 T _ff_log2_q15
0000000000b1a140 S _ff_log2_run
0000000000acbb78 S _ff_log2_tab
00000000007ecc40 T _ff_log_net_error
0000000000568bac T _ff_lpc_calc_coefs
0000000000568878 T _ff_lpc_calc_ref_coefs
0000000000568a28 T _ff_lpc_calc_ref_coefs_f
00000000009df9fc T _ff_lpc_end
00000000009dfa04 T _ff_lpc_init
0000000000ea7d00 S _ff_lpc_refl_cb
0000000000f2ee98 D _ff_lrc_demuxer
0000000000ebde38 S _ff_lrc_metadata_conv
0000000000f2ef40 D _ff_lrc_muxer
00000000007ee504 T _ff_lsb2full
0000000000bed318 S _ff_lsf_nsf_table
00000000005698e4 T _ff_lsp2polyf
0000000000f2f008 D _ff_luodat_demuxer
0000000000f2f0b0 D _ff_lvf_demuxer
0000000000f2f158 D _ff_lxf_demuxer
0000000000569b80 T _ff_lzf_uncompress
0000000000569ea4 T _ff_lzw_decode
00000000009dfa94 T _ff_lzw_decode_close
0000000000569dd4 T _ff_lzw_decode_init
00000000009dfa70 T _ff_lzw_decode_open
0000000000569d44 T _ff_lzw_decode_tail
000000000056a234 T _ff_lzw_encode
000000000056a4b8 T _ff_lzw_encode_flush
000000000056a178 T _ff_lzw_encode_init
0000000000bab5f0 S _ff_lzw_encode_state_size
0000000000f10ab0 D _ff_m101_decoder
0000000000f2f200 D _ff_m4v_demuxer
0000000000f35fc8 D _ff_m4v_muxer
0000000000f10ba0 D _ff_mace3_decoder
0000000000f10c90 D _ff_mace6_decoder
0000000000f10d80 D _ff_magicyuv_decoder
0000000000f10e70 D _ff_magicyuv_encoder
0000000000839a44 T _ff_make_absolute_url
0000000000279540 T _ff_make_format64_list
00000000002794a0 T _ff_make_format_list
000000000066a1f0 T _ff_match_2uint16
0000000000263e90 T _ff_matrix_invert_3x3
0000000000263f54 T _ff_matrix_mul_3x3
0000000000f2f588 D _ff_matroska_audio_muxer
0000000000f2f2a8 D _ff_matroska_demuxer
0000000000f2f3f8 D _ff_matroska_muxer
0000000000ebdf50 S _ff_matroska_video_stereo_mode
0000000000ebdfc8 S _ff_matroska_video_stereo_plane
0000000001751180 S _ff_mb_btype_vlc
000000000177e8c0 S _ff_mb_non_intra_vlc
0000000001751198 S _ff_mb_pat_vlc
00000000017511b0 S _ff_mb_ptype_vlc
0000000000beca61 S _ff_mb_type_b_tab
0000000000b5a846 S _ff_mba_length
0000000000b5a83a S _ff_mba_max
00000000017511c8 S _ff_mbincr_vlc
0000000000f2f650 D _ff_mca_demuxer
0000000000f2f6f8 D _ff_mcc_demuxer
0000000000f2be00 D _ff_md5_muxer
0000000000ec0390 S _ff_md5_protocol
00000000009dff74 T _ff_mdct15_init
00000000009dff1c T _ff_mdct15_uninit
000000000056e058 T _ff_mdct_calc_c
000000000056dc7c T _ff_mdct_calc_c_fixed_32
0000000000381390 T _ff_mdct_calc_neon
00000000009e0570 T _ff_mdct_end
00000000009e0408 T _ff_mdct_end_fixed_32
00000000009e042c T _ff_mdct_init
00000000009e02b4 T _ff_mdct_init_fixed_32
0000000001779b90 S _ff_mdct_win_fixed
000000000177ac90 S _ff_mdct_win_float
0000000000f10f60 D _ff_mdec_decoder
00000000009e0680 T _ff_me_cmp_init
000000000027d1a0 T _ff_me_cmp_sad
000000000027d17c T _ff_me_init_context
000000000027d86c T _ff_me_search_ds
000000000027da44 T _ff_me_search_epzs
000000000027d218 T _ff_me_search_esa
000000000027d754 T _ff_me_search_fss
000000000027d958 T _ff_me_search_hexbs
000000000027d4d8 T _ff_me_search_ntss
000000000027d3e0 T _ff_me_search_tdls
000000000027d2fc T _ff_me_search_tss
000000000027dc98 T _ff_me_search_umh
0000000000ccd2fc S _ff_mediasubtype_cpfilters_processed
0000000000ccd1ec S _ff_mediatype_audio
0000000000ccd1fc S _ff_mediatype_video
00000000002790b0 T _ff_merge_channel_layouts
0000000000278f58 T _ff_merge_formats
00000000002790a8 T _ff_merge_samplerates
00000000007aa894 T _ff_metadata_conv
00000000007aa990 T _ff_metadata_conv_ctx
0000000000ccd2dc S _ff_metadata_guid
0000000000f11050 D _ff_metasound_decoder
0000000000badc10 S _ff_metasound_lsp11
0000000000baf090 S _ff_metasound_lsp16
0000000000bb0690 S _ff_metasound_lsp22
0000000000bb1b10 S _ff_metasound_lsp44
0000000000bad430 S _ff_metasound_lsp8
0000000000e968d8 S _ff_metasound_mode0806
0000000000e969c0 S _ff_metasound_mode0806s
0000000000e96aa8 S _ff_metasound_mode0808
0000000000e96b90 S _ff_metasound_mode0808s
0000000000e96c78 S _ff_metasound_mode1110
0000000000e96d60 S _ff_metasound_mode1110s
0000000000e96e48 S _ff_metasound_mode1616
0000000000e96f30 S _ff_metasound_mode1616s
0000000000e97018 S _ff_metasound_mode2224
0000000000e97100 S _ff_metasound_mode2224s
0000000000e971e8 S _ff_metasound_mode4432
0000000000e972d0 S _ff_metasound_mode4440
0000000000e973b8 S _ff_metasound_mode4448
0000000000f2f7a0 D _ff_mgsts_demuxer
0000000000f11140 D _ff_microdvd_decoder
0000000000f2f848 D _ff_microdvd_demuxer
0000000000f2f8f0 D _ff_microdvd_muxer
0000000000f11320 D _ff_mimic_decoder
0000000000e974a0 S _ff_mjpeg2jpeg_bsf
0000000000f2f9b8 D _ff_mjpeg_2000_demuxer
00000000005613dc T _ff_mjpeg_build_huffman_codes
0000000000573b80 T _ff_mjpeg_decode_dht
0000000000573e84 T _ff_mjpeg_decode_dqt
00000000009e0f6c T _ff_mjpeg_decode_end
00000000009e0d64 T _ff_mjpeg_decode_init
0000000000574194 T _ff_mjpeg_decode_sof
00000000005752b0 T _ff_mjpeg_decode_sos
0000000000f11550 D _ff_mjpeg_decoder
0000000000f34eb8 D _ff_mjpeg_demuxer
00000000009e12ac T _ff_mjpeg_encode_close
000000000057b830 T _ff_mjpeg_encode_dc
000000000057bf10 T _ff_mjpeg_encode_huffman_close
000000000057bf08 T _ff_mjpeg_encode_huffman_init
00000000009e108c T _ff_mjpeg_encode_init
0000000000579fac T _ff_mjpeg_encode_mb
000000000057b0cc T _ff_mjpeg_encode_picture_frame
000000000057a8d4 T _ff_mjpeg_encode_picture_header
000000000057b828 T _ff_mjpeg_encode_picture_trailer
000000000057b4d8 T _ff_mjpeg_encode_stuffing
0000000000f11820 D _ff_mjpeg_encoder
000000000057b284 T _ff_mjpeg_escape_FF
00000000005776c8 T _ff_mjpeg_find_marker
000000000057a7e8 T _ff_mjpeg_init_hvsample
0000000000f36090 D _ff_mjpeg_muxer
0000000000f11420 D _ff_mjpeg_parser
0000000000577b84 T _ff_mjpeg_receive_frame
0000000000e974e0 S _ff_mjpega_dump_header_bsf
0000000000f11460 D _ff_mjpegb_decoder
000000000057ba5c T _ff_mjpegenc_huffman_compute_bits
0000000000841494 T _ff_mkdir_p
0000000000cc5c30 S _ff_mkv_codec_tags
0000000000ebdf20 S _ff_mkv_metadata_conv
000000000079f7a8 T _ff_mkv_stereo3d_conv
0000000000f2fa60 D _ff_mkvtimestamp_v2_muxer
000000000057c364 T _ff_mlp_calculate_parity
0000000000be7ea4 S _ff_mlp_ch_info
0000000000be7ef8 S _ff_mlp_channel_layouts
000000000057c250 T _ff_mlp_checksum16
000000000057c28c T _ff_mlp_checksum8
0000000000f11a50 D _ff_mlp_decoder
0000000000f2fb28 D _ff_mlp_demuxer
0000000000f11c40 D _ff_mlp_encoder
0000000000be7e38 S _ff_mlp_huffman_tables
00000000009e1360 T _ff_mlp_init_crc
0000000000f36220 D _ff_mlp_muxer
000000000057ea74 T _ff_mlp_pack_output
0000000000f11a10 D _ff_mlp_parser
000000000057c3dc T _ff_mlp_read_major_sync
000000000057e9e4 T _ff_mlp_rematrix_channel
000000000057c2c4 T _ff_mlp_restart_checksum
00000000009e14ec T _ff_mlpdsp_init
0000000000f2fc78 D _ff_mlv_demuxer
00000000005819b4 T _ff_mlz_decompression
00000000009e1b14 T _ff_mlz_flush_dict
00000000009e1ad0 T _ff_mlz_init_dict
0000000000f2fd20 D _ff_mm_demuxer
0000000000f2fdc8 D _ff_mmf_demuxer
0000000000f2fe70 D _ff_mmf_muxer
00000000007ad12c T _ff_mms_asf_header_parser
00000000007ad0d4 T _ff_mms_read_data
00000000007ad064 T _ff_mms_read_header
0000000000ec0630 S _ff_mmsh_protocol
0000000000ec06f0 S _ff_mmst_protocol
0000000000f11e20 D _ff_mmvideo_decoder
0000000000f11f10 D _ff_mobiclip_decoder
0000000000b5a7da S _ff_modified_quant_tab
0000000000f2ff38 D _ff_mods_demuxer
0000000000f2ffe0 D _ff_moflex_demuxer
0000000000f12010 D _ff_motionpixels_decoder
0000000000e988a8 S _ff_mov2textsub_bsf
00000000007cc274 T _ff_mov_add_hinted_packet
00000000007cbaf0 T _ff_mov_cenc_avc_parse_nal_units
00000000007cbbc8 T _ff_mov_cenc_avc_write_nal_units
00000000007cc048 T _ff_mov_cenc_free
00000000007cbff0 T _ff_mov_cenc_init
00000000007cb858 T _ff_mov_cenc_write_packet
00000000007cbe58 T _ff_mov_cenc_write_sinf_tag
00000000007cbd04 T _ff_mov_cenc_write_stbl_atoms
00000000007cc944 T _ff_mov_close_hinting
0000000000f30088 D _ff_mov_demuxer
00000000007bdd6c T _ff_mov_get_channel_layout
00000000007bddbc T _ff_mov_get_channel_layout_tag
00000000007cc148 T _ff_mov_init_hinting
000000000079b5d4 T _ff_mov_iso639_to_lang
000000000079b688 T _ff_mov_lang_to_iso639
0000000000f30130 D _ff_mov_muxer
00000000007bdea8 T _ff_mov_read_chan
00000000007be040 T _ff_mov_read_esds
00000000007af820 T _ff_mov_read_stsd_entries
000000000079ba30 T _ff_mov_write_chan
00000000007be0e4 T _ff_mov_write_packet
0000000000f12110 D _ff_movtext_decoder
0000000000f12200 D _ff_movtext_encoder
0000000000f133c0 D _ff_mp1_decoder
0000000000f13880 D _ff_mp1float_decoder
0000000000f134b0 D _ff_mp2_decoder
0000000000f13e60 D _ff_mp2_encoder
0000000000f362e8 D _ff_mp2_muxer
0000000000f13d70 D _ff_mp2fixed_encoder
0000000000f13970 D _ff_mp2float_decoder
0000000000f135a0 D _ff_mp3_decoder
0000000000f30770 D _ff_mp3_demuxer
0000000000e98bb0 S _ff_mp3_header_decompress_bsf
0000000000f30818 D _ff_mp3_muxer
0000000000f13690 D _ff_mp3adu_decoder
0000000000f13b50 D _ff_mp3adufloat_decoder
0000000000f13a60 D _ff_mp3float_decoder
0000000000f13780 D _ff_mp3on4_decoder
0000000000f13c40 D _ff_mp3on4float_decoder
0000000000f302c0 D _ff_mp4_muxer
0000000000cc4da0 S _ff_mp4_obj_type
000000000079b7ac T _ff_mp4_parse_es_descr
000000000079b818 T _ff_mp4_read_dec_config_descr
000000000079b744 T _ff_mp4_read_descr
000000000079b6f8 T _ff_mp4_read_descr_len
0000000000ec90a8 S _ff_mp4a_latm_dynamic_handler
0000000000ec91c8 S _ff_mp4v_es_dynamic_handler
0000000000e9c808 S _ff_mpa_alloc_tables
00000000005ae088 T _ff_mpa_decode_header
0000000000bee3f0 S _ff_mpa_enwindow
0000000000bed360 S _ff_mpa_huff_data
00000000005a6d4c T _ff_mpa_l2_select_table
0000000000bed4db S _ff_mpa_pretab
0000000000bed048 S _ff_mpa_quant_bits
0000000000bed004 S _ff_mpa_quant_steps
0000000000becff0 S _ff_mpa_sblimit_table
00000000005ae544 T _ff_mpa_synth_filter_fixed
00000000005aed50 T _ff_mpa_synth_filter_float
00000000009e5268 T _ff_mpa_synth_init_fixed
00000000009e534c T _ff_mpa_synth_init_float
000000000177a090 S _ff_mpa_synth_window_fixed
000000000177b190 S _ff_mpa_synth_window_float
00000000005ae180 T _ff_mpadsp_apply_window_fixed
00000000003815c0 T _ff_mpadsp_apply_window_fixed_neon
00000000005aea40 T _ff_mpadsp_apply_window_float
00000000003817bc T _ff_mpadsp_apply_window_float_neon
00000000009e4f68 T _ff_mpadsp_init
00000000009c0db0 T _ff_mpadsp_init_aarch64
0000000000f122f0 D _ff_mpc7_decoder
0000000000f123f0 D _ff_mpc8_decoder
0000000000f30988 D _ff_mpc8_demuxer
0000000000f308e0 D _ff_mpc_demuxer
0000000000593694 T _ff_mpc_dequantize_and_synth
00000000009e2f28 T _ff_mpeg12_common_init
000000000059c78c T _ff_mpeg12_find_best_frame_rate
0000000000bebecc S _ff_mpeg12_frame_rate_tab
00000000009e2f44 T _ff_mpeg12_init_vlcs
0000000000beba52 S _ff_mpeg12_mbAddrIncrTable
0000000000bebb1a S _ff_mpeg12_mbMotionVectorTable
0000000000beba9a S _ff_mpeg12_mbPatTable
0000000000beb5e0 S _ff_mpeg12_vlc_dc_chroma_bits
0000000000beb5c8 S _ff_mpeg12_vlc_dc_chroma_code
0000000000beb5bc S _ff_mpeg12_vlc_dc_lum_bits
0000000000beb5a4 S _ff_mpeg12_vlc_dc_lum_code
0000000000bebd34 S _ff_mpeg1_aspect
000000000059526c T _ff_mpeg1_clean_buffers
0000000000beef84 S _ff_mpeg1_dc_scale_table
000000000059545c T _ff_mpeg1_decode_block_intra
0000000000beb324 S _ff_mpeg1_default_intra_matrix
0000000000beb524 S _ff_mpeg1_default_non_intra_matrix
00000000009e3348 T _ff_mpeg1_encode_init
000000000059b364 T _ff_mpeg1_encode_mb
000000000059a968 T _ff_mpeg1_encode_picture_header
000000000059a808 T _ff_mpeg1_encode_slice_header
000000000059529c T _ff_mpeg1_find_frame_end
00000000009e32a8 T _ff_mpeg1_init_uni_ac_vlc
0000000000f30b80 D _ff_mpeg1system_muxer
0000000000f30c48 D _ff_mpeg1vcd_muxer
0000000000f127a0 D _ff_mpeg1video_decoder
0000000000f12b70 D _ff_mpeg1video_encoder
0000000000f363b0 D _ff_mpeg1video_muxer
0000000000bebd74 S _ff_mpeg2_aspect
0000000000e9f988 S _ff_mpeg2_dc_scale_table
0000000000bebb3c S _ff_mpeg2_frame_rate_tab
0000000000e9b378 S _ff_mpeg2_metadata_bsf
0000000000beef64 S _ff_mpeg2_non_linear_qscale
0000000000f30ea0 D _ff_mpeg2dvd_muxer
0000000000f30dd8 D _ff_mpeg2svcd_muxer
0000000000f12890 D _ff_mpeg2video_decoder
0000000000f12c60 D _ff_mpeg2video_encoder
0000000000f36478 D _ff_mpeg2video_muxer
0000000000f30d10 D _ff_mpeg2vob_muxer
0000000000bebfdc S _ff_mpeg4_DCtab_chrom
0000000000bebfc2 S _ff_mpeg4_DCtab_lum
0000000000becb8a S _ff_mpeg4_c_dc_scale_table
000000000059d63c T _ff_mpeg4_clean_buffers
0000000000becbba S _ff_mpeg4_dc_threshold
000000000059ec5c T _ff_mpeg4_decode_partitions
000000000059fb80 T _ff_mpeg4_decode_picture_header
000000000059eaf4 T _ff_mpeg4_decode_studio_slice_header
000000000059df18 T _ff_mpeg4_decode_video_packet_header
0000000000f13180 D _ff_mpeg4_decoder
0000000000beca6a S _ff_mpeg4_default_intra_matrix
0000000000becaea S _ff_mpeg4_default_non_intra_matrix
00000000005a43dc T _ff_mpeg4_encode_mb
00000000005a5a64 T _ff_mpeg4_encode_picture_header
00000000005a63e8 T _ff_mpeg4_encode_video_packet_header
0000000000f13280 D _ff_mpeg4_encoder
000000000059da40 T _ff_mpeg4_find_frame_end
00000000005a1a74 T _ff_mpeg4_frame_end
0000000000ec9210 S _ff_mpeg4_generic_dynamic_handler
000000000059d5d8 T _ff_mpeg4_get_video_packet_prefix_length
000000000059d6e8 T _ff_mpeg4_init_direct_mv
00000000005a60b4 T _ff_mpeg4_init_partitions
0000000000bec192 S _ff_mpeg4_intra_level
0000000000bec1f8 S _ff_mpeg4_intra_run
0000000000bebff6 S _ff_mpeg4_intra_vlc
00000000005a61c4 T _ff_mpeg4_merge_partitions
000000000059dd10 T _ff_mpeg4_pred_ac
0000000000becbaa S _ff_mpeg4_resync_prefix
0000000000f12d50 D _ff_mpeg4_rl_intra
000000000059d740 T _ff_mpeg4_set_direct_mv
00000000017511f8 S _ff_mpeg4_static_rl_table_store
0000000000becbe8 S _ff_mpeg4_studio_dc_chroma
0000000000becbc2 S _ff_mpeg4_studio_dc_luma
0000000000becc0e S _ff_mpeg4_studio_intra
00000000005a59dc T _ff_mpeg4_stuffing
0000000000e9b598 S _ff_mpeg4_unpack_bframes_bsf
000000000059f6c0 T _ff_mpeg4_workaround_bugs
0000000000becb6a S _ff_mpeg4_y_dc_scale_table
0000000000bebfb0 S _ff_mpeg4audio_channels
000000000059d054 T _ff_mpeg4audio_get_config_gb
0000000000f13140 D _ff_mpeg4video_parser
00000000005e8960 T _ff_mpeg4video_split
00000000009e39c4 T _ff_mpeg4videodec_static_init
0000000000ec9138 S _ff_mpeg_audio_dynamic_handler
0000000000ec90f0 S _ff_mpeg_audio_robust_dynamic_handler
00000000005b58d4 T _ff_mpeg_draw_horiz_band
00000000005a6a1c T _ff_mpeg_er_frame_start
00000000005a6af4 T _ff_mpeg_er_init
00000000005b5a4c T _ff_mpeg_flush
00000000005b134c T _ff_mpeg_framesize_alloc
00000000005b1c48 T _ff_mpeg_ref_picture
00000000005b1a50 T _ff_mpeg_unref_picture
00000000005b28a4 T _ff_mpeg_update_thread_context
0000000000ec9180 S _ff_mpeg_video_dynamic_handler
0000000000f13370 D _ff_mpegaudio_parser
00000000009e41fc T _ff_mpegaudiodec_common_init_static
0000000000f30a30 D _ff_mpegps_demuxer
0000000000f30f68 D _ff_mpegts_demuxer
0000000000ec9300 S _ff_mpegts_dynamic_handler
0000000000f310b8 D _ff_mpegts_muxer
0000000000f31010 D _ff_mpegtsraw_demuxer
0000000000f12980 D _ff_mpegvideo_decoder
0000000000f31180 D _ff_mpegvideo_demuxer
0000000000f14410 D _ff_mpegvideo_parser
00000000009e7438 T _ff_mpegvideodsp_init
00000000009e7450 T _ff_mpegvideoencdsp_init
0000000000f312f0 D _ff_mpjpeg_demuxer
0000000000f31228 D _ff_mpjpeg_muxer
0000000000f14450 D _ff_mpl2_decoder
0000000000f31398 D _ff_mpl2_demuxer
0000000000f31440 D _ff_mpsub_demuxer
00000000005b2ed0 T _ff_mpv_common_defaults
00000000005b3724 T _ff_mpv_common_end
00000000005b2cf4 T _ff_mpv_common_frame_size_change
00000000009e5bac T _ff_mpv_common_init
00000000009e9438 T _ff_mpv_common_init_neon
00000000005b2f18 T _ff_mpv_decode_init
00000000009e7320 T _ff_mpv_encode_end
00000000009e60c4 T _ff_mpv_encode_init
00000000005b93b0 T _ff_mpv_encode_picture
00000000005b4010 T _ff_mpv_export_qp_table
00000000005b3f9c T _ff_mpv_frame_end
00000000005b386c T _ff_mpv_frame_start
0000000000e9c890 S _ff_mpv_generic_options
00000000009e5b00 T _ff_mpv_idct_init
00000000005c393c T _ff_mpv_motion
00000000005bbdbc T _ff_mpv_reallocate_putbitbuffer
00000000005b41e0 T _ff_mpv_reconstruct_mb
00000000005b5b2c T _ff_mpv_report_decode_progress
00000000005c70d0 T _ff_mqc_decode
00000000005c7288 T _ff_mqc_encode
00000000005c7388 T _ff_mqc_flush
00000000005c746c T _ff_mqc_flush_to
00000000009e74b0 T _ff_mqc_init_context_tables
00000000005c6ff8 T _ff_mqc_init_contexts
00000000005c7018 T _ff_mqc_initdec
00000000005c7240 T _ff_mqc_initenc
00000000005c7378 T _ff_mqc_length
000000000177bd90 S _ff_mqc_nlps
000000000177bdee S _ff_mqc_nmps
000000000177be4c S _ff_mqc_qe
0000000000ec8b98 S _ff_ms_rtp_asf_pfa_handler
0000000000ec8b50 S _ff_ms_rtp_asf_pfv_handler
0000000000f15530 D _ff_msa1_decoder
0000000000f314e8 D _ff_msf_demuxer
00000000005c7548 T _ff_msgsm_decode_block
000000000177bf08 S _ff_msmp4_dc_chroma_vlc
000000000177bf38 S _ff_msmp4_dc_luma_vlc
0000000000bef330 S _ff_msmp4_mb_i_table
000000000177bf68 S _ff_msmp4_mb_i_vlc
00000000005c98e0 T _ff_msmpeg4_code012
00000000005c7b38 T _ff_msmpeg4_coded_block_pred
00000000009e7540 T _ff_msmpeg4_common_init
00000000005c8c04 T _ff_msmpeg4_decode_block
00000000005c8b24 T _ff_msmpeg4_decode_ext_header
00000000009e774c T _ff_msmpeg4_decode_init
00000000005c9458 T _ff_msmpeg4_decode_motion
00000000005c86c0 T _ff_msmpeg4_decode_picture_header
00000000005ca42c T _ff_msmpeg4_encode_block
00000000005c9d7c T _ff_msmpeg4_encode_ext_header
00000000009e7c68 T _ff_msmpeg4_encode_init
00000000005c9f8c T _ff_msmpeg4_encode_mb
00000000005c9e58 T _ff_msmpeg4_encode_motion
00000000005c99a8 T _ff_msmpeg4_encode_picture_header
00000000005c9f30 T _ff_msmpeg4_handle_slices
00000000005c7b74 T _ff_msmpeg4_pred_dc
0000000000f14db0 D _ff_msmpeg4v1_decoder
0000000000f14ea0 D _ff_msmpeg4v2_decoder
0000000000f14130 D _ff_msmpeg4v2_encoder
0000000000f14f90 D _ff_msmpeg4v3_decoder
0000000000f14220 D _ff_msmpeg4v3_encoder
0000000000f31590 D _ff_msnwc_tcp_demuxer
0000000000f15170 D _ff_msp2_decoder
0000000000f31638 D _ff_msp_demuxer
0000000000731500 T _ff_mspel_motion
00000000005cb05c T _ff_msrle_decode
0000000000f15260 D _ff_msrle_decoder
00000000009e84fc T _ff_mss12_decode_end
00000000009e8098 T _ff_mss12_decode_init
00000000005cbf9c T _ff_mss12_decode_rect
00000000005cbcec T _ff_mss12_model_update
00000000005cbe28 T _ff_mss12_slicecontext_reset
0000000000f15350 D _ff_mss1_decoder
0000000000f15440 D _ff_mss2_decoder
00000000009e87ec T _ff_mss2dsp_init
00000000005d0138 T _ff_mss34_dct_put
00000000005d00ac T _ff_mss34_gen_quant_mat
0000000000f15720 D _ff_msvideo1_decoder
0000000000f15810 D _ff_msvideo1_encoder
0000000000f10420 D _ff_mszh_decoder
0000000000f316e0 D _ff_mtaf_demuxer
0000000000f15620 D _ff_mts2_decoder
0000000000f31788 D _ff_mtv_demuxer
0000000000f31830 D _ff_musx_demuxer
0000000000f15900 D _ff_mv30_decoder
0000000000f318d8 D _ff_mv_demuxer
0000000000f14d20 D _ff_mv_tables
00000000017511e0 S _ff_mv_vlc
0000000000f15a00 D _ff_mvc1_decoder
0000000000f15af0 D _ff_mvc2_decoder
0000000000f11230 D _ff_mvdv_decoder
0000000000f31980 D _ff_mvi_demuxer
0000000000b5a288 S _ff_mvtab
0000000000cc8420 S _ff_mxf_codec_tag_uls
0000000000cc7e30 S _ff_mxf_codec_uls
0000000000cc8470 S _ff_mxf_color_primaries_uls
0000000000cc8858 S _ff_mxf_color_space_uls
0000000000cc8600 S _ff_mxf_color_trc_uls
0000000000f31b98 D _ff_mxf_d10_muxer
0000000000cc7d40 S _ff_mxf_data_definition_uls
00000000007e0dd4 T _ff_mxf_decode_pixel_layout
0000000000f31a28 D _ff_mxf_demuxer
00000000007e0e40 T _ff_mxf_get_content_package_rate
0000000000cc7cf0 S _ff_mxf_mastering_display_local_tags
0000000000cc7cd0 S _ff_mxf_mastering_display_prefix
0000000000f31ad0 D _ff_mxf_muxer
0000000000f31c60 D _ff_mxf_opatom_muxer
0000000000cc83a8 S _ff_mxf_pixel_format_uls
0000000000cc7cdd S _ff_mxf_random_index_pack_key
0000000000f31d28 D _ff_mxg_demuxer
0000000000f15be0 D _ff_mxpeg_decoder
0000000000750d0c T _ff_nal_unit_extract_rbsp
0000000000f31dd0 D _ff_nc_demuxer
0000000000bf534c S _ff_nelly_band_sizes_table
0000000000bf53e4 S _ff_nelly_delta_table
0000000000bf5150 S _ff_nelly_dequantization_table
00000000005d4788 T _ff_nelly_get_sample_bits
0000000000bf5364 S _ff_nelly_init_table
0000000000f15cd0 D _ff_nellymoser_decoder
0000000000f15dc0 D _ff_nellymoser_encoder
00000000007ec018 T _ff_network_close
00000000007ebecc T _ff_network_init
00000000007ebfb4 T _ff_network_sleep_interruptible
00000000007ebed4 T _ff_network_wait_fd
00000000007ebf38 T _ff_network_wait_fd_timeout
0000000000f31e78 D _ff_nistsphere_demuxer
00000000002e6f7c T _ff_nlmeans_init
00000000009a6dd0 T _ff_nlmeans_init_aarch64
0000000000e9fa48 S _ff_noise_bsf
0000000000f15ec0 D _ff_notchlc_decoder
0000000000f31f20 D _ff_nsp_demuxer
0000000000f31fc8 D _ff_nsv_demuxer
0000000000841058 T _ff_ntp_time
0000000000e9fb48 S _ff_null_bsf
000000000024ec9c T _ff_null_get_audio_buffer
0000000000345fc8 T _ff_null_get_video_buffer
0000000000f32070 D _ff_null_muxer
00000000007ee544 T _ff_nut_add_sp
0000000000cca9f8 S _ff_nut_audio_extra_tags
0000000000ccaa30 S _ff_nut_audio_tags
0000000000ec4a38 S _ff_nut_codec_tags
0000000000cca528 S _ff_nut_data_tags
0000000000f32138 D _ff_nut_demuxer
0000000000ccab00 S _ff_nut_dispositions
00000000007ee604 T _ff_nut_free_sp
0000000000ec4a78 S _ff_nut_metadata_conv
0000000000f321e0 D _ff_nut_muxer
00000000007ee47c T _ff_nut_reset_ts
00000000007ee52c T _ff_nut_sp_pos_cmp
00000000007ee538 T _ff_nut_sp_pts_cmp
0000000000cca4f0 S _ff_nut_subtitle_tags
0000000000cca538 S _ff_nut_video_tags
0000000000f15fb0 D _ff_nuv_decoder
0000000000f322a8 D _ff_nuv_demuxer
000000000085da58 T _ff_nv12_to_abgr_neon
000000000085d868 T _ff_nv12_to_argb_neon
000000000085db50 T _ff_nv12_to_bgra_neon
000000000085d960 T _ff_nv12_to_rgba_neon
000000000085de38 T _ff_nv21_to_abgr_neon
000000000085dc48 T _ff_nv21_to_argb_neon
000000000085df30 T _ff_nv21_to_bgra_neon
000000000085dd40 T _ff_nv21_to_rgba_neon
0000000000ea8b20 S _ff_obmc_tab
0000000000f28138 D _ff_obu_demuxer
0000000000f324c0 D _ff_oga_muxer
0000000000f32350 D _ff_ogg_demuxer
0000000000f323f8 D _ff_ogg_muxer
0000000000ec5238 S _ff_ogm_audio_codec
0000000000ec52b8 S _ff_ogm_old_codec
0000000000ec5278 S _ff_ogm_text_codec
0000000000ec51f8 S _ff_ogm_video_codec
0000000000f32588 D _ff_ogv_muxer
0000000000ec5138 S _ff_old_dirac_codec
0000000000bf4162 S _ff_old_ff_y_dc_scale_table
0000000000ec51b8 S _ff_old_flac_codec
0000000000ccacc0 S _ff_oma_chid_to_native_layout
0000000000ccacf8 S _ff_oma_chid_to_num_channels
0000000000ccac88 S _ff_oma_codec_tags
0000000000f327e0 D _ff_oma_demuxer
0000000000f32888 D _ff_oma_muxer
0000000000ccac78 S _ff_oma_srate_tab
0000000000bff8d4 S _ff_on2avc_cb_elems
0000000000bf6036 S _ff_on2avc_cb_lens
0000000000bf9316 S _ff_on2avc_cb_syms
0000000000c13990 S _ff_on2avc_ctab_1
0000000000c15990 S _ff_on2avc_ctab_2
0000000000c17990 S _ff_on2avc_ctab_3
0000000000c19990 S _ff_on2avc_ctab_4
0000000000f160a0 D _ff_on2avc_decoder
0000000000e9fb88 S _ff_on2avc_modes_40
0000000000e9fc08 S _ff_on2avc_modes_44
0000000000bf5fbd S _ff_on2avc_scale_diff_bits
0000000000bf5f44 S _ff_on2avc_scale_diff_syms
0000000000c01b10 S _ff_on2avc_tab_10_1
0000000000c01b60 S _ff_on2avc_tab_10_2
0000000000c01c10 S _ff_on2avc_tab_20_1
0000000000c01cb0 S _ff_on2avc_tab_20_2
0000000000c01d50 S _ff_on2avc_tab_40_1
0000000000c01e90 S _ff_on2avc_tab_40_2
0000000000c01fd0 S _ff_on2avc_tab_84_1
0000000000c02270 S _ff_on2avc_tab_84_2
0000000000c02510 S _ff_on2avc_tab_84_3
0000000000c027b0 S _ff_on2avc_tab_84_4
0000000000e9fd58 S _ff_on2avc_tabs_19_40_1
0000000000e9fdf0 S _ff_on2avc_tabs_19_40_2
0000000000e9fe88 S _ff_on2avc_tabs_20_84_1
0000000000e9ff28 S _ff_on2avc_tabs_20_84_2
0000000000e9ffc8 S _ff_on2avc_tabs_20_84_3
0000000000ea0068 S _ff_on2avc_tabs_20_84_4
0000000000e9fc88 S _ff_on2avc_tabs_4_10_1
0000000000e9fca8 S _ff_on2avc_tabs_4_10_2
0000000000e9fcc8 S _ff_on2avc_tabs_9_20_1
0000000000e9fd10 S _ff_on2avc_tabs_9_20_2
0000000000c00910 S _ff_on2avc_window_long_24000
0000000000bff910 S _ff_on2avc_window_long_32000
0000000000c01910 S _ff_on2avc_window_short
0000000000ec52f8 S _ff_opus_codec
0000000000f161d0 D _ff_opus_decoder
000000000038191c T _ff_opus_deemphasis_neon
0000000000c1bc60 S _ff_opus_default_coupled_streams
00000000009ea1b8 T _ff_opus_dsp_init
00000000009c0de4 T _ff_opus_dsp_init_aarch64
0000000000f162c0 D _ff_opus_encoder
0000000000ea6528 S _ff_opus_metadata_bsf
0000000000f32718 D _ff_opus_muxer
00000000009e9954 T _ff_opus_parse_extradata
00000000005dac94 T _ff_opus_parse_packet
0000000000f16190 D _ff_opus_parser
0000000000381990 T _ff_opus_postfilter_neon
00000000005e66d0 T _ff_opus_psy_celt_frame_init
00000000005e6864 T _ff_opus_psy_celt_frame_process
00000000009ea7fc T _ff_opus_psy_end
00000000009ea5b8 T _ff_opus_psy_init
00000000005e6d44 T _ff_opus_psy_postencode_update
00000000005e6008 T _ff_opus_psy_process
00000000005e6ff8 T _ff_opus_psy_signal_eof
00000000005e02bc T _ff_opus_rc_dec_cdf
00000000005e0fb4 T _ff_opus_rc_dec_init
00000000005e0cac T _ff_opus_rc_dec_laplace
00000000005e0458 T _ff_opus_rc_dec_log
00000000005e10d0 T _ff_opus_rc_dec_raw_init
00000000005e06cc T _ff_opus_rc_dec_uint
00000000005e0888 T _ff_opus_rc_dec_uint_step
00000000005e0a24 T _ff_opus_rc_dec_uint_tri
00000000005e0380 T _ff_opus_rc_enc_cdf
00000000005e10e0 T _ff_opus_rc_enc_end
00000000005e137c T _ff_opus_rc_enc_init
00000000005e0da8 T _ff_opus_rc_enc_laplace
00000000005e04b0 T _ff_opus_rc_enc_log
00000000005e07b4 T _ff_opus_rc_enc_uint
00000000005e093c T _ff_opus_rc_enc_uint_step
00000000005e0bc4 T _ff_opus_rc_enc_uint_tri
00000000005e0588 T _ff_opus_rc_get_raw
00000000005e0600 T _ff_opus_rc_put_raw
000000000025fea0 T _ff_outlink_get_status
0000000000f163b0 D _ff_paf_audio_decoder
0000000000f32950 D _ff_paf_demuxer
0000000000f164a0 D _ff_paf_video_decoder
0000000000f1ad90 D _ff_pam_decoder
0000000000f16590 D _ff_pam_encoder
00000000003cff30 T _ff_parse_a53_cc
0000000000279e64 T _ff_parse_channel_layout
00000000005e8958 T _ff_parse_close
00000000008427c4 T _ff_parse_creation_time_metadata
000000000080dcb4 T _ff_parse_fmtp
000000000045e76c T _ff_parse_itu_t_t35_to_dynamic_hdr10_plus
0000000000841654 T _ff_parse_key_value
00000000007d2d84 T _ff_parse_mpeg2_descriptor
0000000000279d68 T _ff_parse_pixel_format
0000000000279de4 T _ff_parse_sample_rate
0000000000801880 T _ff_parse_specific_params
0000000000f1aca0 D _ff_pbm_decoder
0000000000f1b240 D _ff_pbm_encoder
0000000000f16a50 D _ff_pcm_alaw_decoder
0000000000f335c8 D _ff_pcm_alaw_demuxer
0000000000f16960 D _ff_pcm_alaw_encoder
0000000000f34678 D _ff_pcm_alaw_muxer
0000000000f16690 D _ff_pcm_bluray_decoder
0000000000f16780 D _ff_pcm_dvd_decoder
0000000000f16870 D _ff_pcm_dvd_encoder
0000000000f16b40 D _ff_pcm_f16le_decoder
0000000000f16c30 D _ff_pcm_f24le_decoder
0000000000f16e10 D _ff_pcm_f32be_decoder
0000000000f32b48 D _ff_pcm_f32be_demuxer
0000000000f16d20 D _ff_pcm_f32be_encoder
0000000000f339f8 D _ff_pcm_f32be_muxer
0000000000f16ff0 D _ff_pcm_f32le_decoder
0000000000f32bf0 D _ff_pcm_f32le_demuxer
0000000000f16f00 D _ff_pcm_f32le_encoder
0000000000f33ac0 D _ff_pcm_f32le_muxer
0000000000f171d0 D _ff_pcm_f64be_decoder
0000000000f329f8 D _ff_pcm_f64be_demuxer
0000000000f170e0 D _ff_pcm_f64be_encoder
0000000000f33868 D _ff_pcm_f64be_muxer
0000000000f173b0 D _ff_pcm_f64le_decoder
0000000000f32aa0 D _ff_pcm_f64le_demuxer
0000000000f172c0 D _ff_pcm_f64le_encoder
0000000000f33930 D _ff_pcm_f64le_muxer
0000000000f174a0 D _ff_pcm_lxf_decoder
0000000000f17680 D _ff_pcm_mulaw_decoder
0000000000f33670 D _ff_pcm_mulaw_demuxer
0000000000f17590 D _ff_pcm_mulaw_encoder
0000000000f34740 D _ff_pcm_mulaw_muxer
00000000007fb110 T _ff_pcm_read_packet
00000000007fb188 T _ff_pcm_read_seek
0000000000ea6ad0 S _ff_pcm_rechunk_bsf
0000000000f17c20 D _ff_pcm_s16be_decoder
0000000000f32f38 D _ff_pcm_s16be_demuxer
0000000000f17b30 D _ff_pcm_s16be_encoder
0000000000f33ea8 D _ff_pcm_s16be_muxer
0000000000f17e00 D _ff_pcm_s16be_planar_decoder
0000000000f17d10 D _ff_pcm_s16be_planar_encoder
0000000000f17fe0 D _ff_pcm_s16le_decoder
0000000000f32fe0 D _ff_pcm_s16le_demuxer
0000000000f17ef0 D _ff_pcm_s16le_encoder
0000000000f33f70 D _ff_pcm_s16le_muxer
0000000000f181c0 D _ff_pcm_s16le_planar_decoder
0000000000f180d0 D _ff_pcm_s16le_planar_encoder
0000000000f183a0 D _ff_pcm_s24be_decoder
0000000000f32de8 D _ff_pcm_s24be_demuxer
0000000000f182b0 D _ff_pcm_s24be_encoder
0000000000f33d18 D _ff_pcm_s24be_muxer
0000000000f18580 D _ff_pcm_s24daud_decoder
0000000000f18490 D _ff_pcm_s24daud_encoder
0000000000f18760 D _ff_pcm_s24le_decoder
0000000000f32e90 D _ff_pcm_s24le_demuxer
0000000000f18670 D _ff_pcm_s24le_encoder
0000000000f33de0 D _ff_pcm_s24le_muxer
0000000000f18940 D _ff_pcm_s24le_planar_decoder
0000000000f18850 D _ff_pcm_s24le_planar_encoder
0000000000f18b20 D _ff_pcm_s32be_decoder
0000000000f32c98 D _ff_pcm_s32be_demuxer
0000000000f18a30 D _ff_pcm_s32be_encoder
0000000000f33b88 D _ff_pcm_s32be_muxer
0000000000f18d00 D _ff_pcm_s32le_decoder
0000000000f32d40 D _ff_pcm_s32le_demuxer
0000000000f18c10 D _ff_pcm_s32le_encoder
0000000000f33c50 D _ff_pcm_s32le_muxer
0000000000f18ee0 D _ff_pcm_s32le_planar_decoder
0000000000f18df0 D _ff_pcm_s32le_planar_encoder
0000000000f19de0 D _ff_pcm_s64be_decoder
0000000000f19cf0 D _ff_pcm_s64be_encoder
0000000000f19fc0 D _ff_pcm_s64le_decoder
0000000000f19ed0 D _ff_pcm_s64le_encoder
0000000000f17860 D _ff_pcm_s8_decoder
0000000000f33088 D _ff_pcm_s8_demuxer
0000000000f17770 D _ff_pcm_s8_encoder
0000000000f34038 D _ff_pcm_s8_muxer
0000000000f17a40 D _ff_pcm_s8_planar_decoder
0000000000f17950 D _ff_pcm_s8_planar_encoder
0000000000f192a0 D _ff_pcm_u16be_decoder
0000000000f333d0 D _ff_pcm_u16be_demuxer
0000000000f191b0 D _ff_pcm_u16be_encoder
0000000000f34420 D _ff_pcm_u16be_muxer
0000000000f19480 D _ff_pcm_u16le_decoder
0000000000f33478 D _ff_pcm_u16le_demuxer
0000000000f19390 D _ff_pcm_u16le_encoder
0000000000f344e8 D _ff_pcm_u16le_muxer
0000000000f19660 D _ff_pcm_u24be_decoder
0000000000f33280 D _ff_pcm_u24be_demuxer
0000000000f19570 D _ff_pcm_u24be_encoder
0000000000f34290 D _ff_pcm_u24be_muxer
0000000000f19840 D _ff_pcm_u24le_decoder
0000000000f33328 D _ff_pcm_u24le_demuxer
0000000000f19750 D _ff_pcm_u24le_encoder
0000000000f34358 D _ff_pcm_u24le_muxer
0000000000f19a20 D _ff_pcm_u32be_decoder
0000000000f33130 D _ff_pcm_u32be_demuxer
0000000000f19930 D _ff_pcm_u32be_encoder
0000000000f34100 D _ff_pcm_u32be_muxer
0000000000f19c00 D _ff_pcm_u32le_decoder
0000000000f331d8 D _ff_pcm_u32le_demuxer
0000000000f19b10 D _ff_pcm_u32le_encoder
0000000000f341c8 D _ff_pcm_u32le_muxer
0000000000f190c0 D _ff_pcm_u8_decoder
0000000000f33520 D _ff_pcm_u8_demuxer
0000000000f18fd0 D _ff_pcm_u8_encoder
0000000000f345b0 D _ff_pcm_u8_muxer
0000000000f1a1a0 D _ff_pcm_vidc_decoder
0000000000f33718 D _ff_pcm_vidc_demuxer
0000000000f1a0b0 D _ff_pcm_vidc_encoder
0000000000f34808 D _ff_pcm_vidc_muxer
0000000000f1a2c0 D _ff_pcx_decoder
0000000000f1a3b0 D _ff_pcx_encoder
0000000000f1ae80 D _ff_pfm_decoder
0000000000f1a9d0 D _ff_pgm_decoder
0000000000f1af70 D _ff_pgm_encoder
0000000000f1aac0 D _ff_pgmyuv_decoder
0000000000f1b060 D _ff_pgmyuv_encoder
0000000000f1a4a0 D _ff_pgssub_decoder
0000000000f1a590 D _ff_pgx_decoder
0000000000f1a680 D _ff_photocd_decoder
0000000000f1a770 D _ff_pictor_decoder
0000000000eb7fe8 S _ff_pipe_protocol
00000000009eb014 T _ff_pixblockdsp_init
00000000009c0e18 T _ff_pixblockdsp_init_aarch64
0000000000f1a860 D _ff_pixlet_decoder
0000000000f20530 D _ff_pjs_decoder
0000000000f348d0 D _ff_pjs_demuxer
0000000000279958 T _ff_planar_sample_fmts
0000000000f34978 D _ff_pmp_demuxer
0000000000f1a950 D _ff_png_parser
00000000005ef62c T _ff_pnm_decode_header
0000000000f1a990 D _ff_pnm_parser
0000000000c5111c S _ff_pow_0_5
0000000000afe86c S _ff_pow_0_55
0000000000afe81c S _ff_pow_0_7
0000000000afe844 S _ff_pow_0_75
0000000000f34a20 D _ff_pp_bnk_demuxer
0000000000f1abb0 D _ff_ppm_decoder
0000000000f1b150 D _ff_ppm_encoder
000000000058aba0 T _ff_pre_estimate_p_frame_motion
000000000037e05c T _ff_pred16x16_128_dc_neon
000000000037e0d0 T _ff_pred16x16_dc_neon
000000000037e148 T _ff_pred16x16_hor_neon
000000000037e07c T _ff_pred16x16_left_dc_neon
000000000037e188 T _ff_pred16x16_plane_neon
000000000037e064 T _ff_pred16x16_top_dc_neon
000000000037e164 T _ff_pred16x16_vert_neon
000000000037e550 T _ff_pred8x8_0l0_dc_neon
000000000037e4fc T _ff_pred8x8_0lt_dc_neon
000000000037e398 T _ff_pred8x8_128_dc_neon
000000000037e404 T _ff_pred8x8_dc_neon
000000000037e290 T _ff_pred8x8_hor_neon
000000000037e4d0 T _ff_pred8x8_l00_dc_neon
000000000037e484 T _ff_pred8x8_l0t_dc_neon
000000000037e3c8 T _ff_pred8x8_left_dc_neon
000000000037e2d0 T _ff_pred8x8_plane_neon
000000000037e3a4 T _ff_pred8x8_top_dc_neon
000000000037e2ac T _ff_pred8x8_vert_neon
0000000000382b1c T _ff_prefetch_aarch64
00000000005b3fbc T _ff_print_debug_info
00000000005b1ff4 T _ff_print_debug_info2
000000000026f514 T _ff_proc_from_dnn_to_frame
000000000026f70c T _ff_proc_from_frame_to_dnn
0000000000ec7098 S _ff_prompeg_protocol
0000000000c1fc2c S _ff_prores_ac_codebook
0000000000f1b420 D _ff_prores_aw_encoder
0000000000c1fc28 S _ff_prores_dc_codebook
0000000000f1b330 D _ff_prores_decoder
0000000000f1b510 D _ff_prores_encoder
0000000000635918 T _ff_prores_idct_10
0000000000635c28 T _ff_prores_idct_12
0000000000c1fbe8 S _ff_prores_interlaced_scan
0000000000f1b600 D _ff_prores_ks_encoder
0000000000c1fc43 S _ff_prores_lev_to_cb_index
0000000000ea6ed8 S _ff_prores_metadata_bsf
0000000000c1fba8 S _ff_prores_progressive_scan
0000000000c1fc33 S _ff_prores_run_to_cb_index
00000000009eb2dc T _ff_proresdsp_init
0000000000f1b6f0 D _ff_prosumer_decoder
000000000037a1bc T _ff_ps_add_squares_neon
000000000036c464 T _ff_ps_apply
000000000036a870 T _ff_ps_apply_fixed
00000000009bf4a4 T _ff_ps_ctx_init
00000000009befb0 T _ff_ps_ctx_init_fixed
000000000037a2d4 T _ff_ps_hybrid_analysis_neon
00000000009befbc T _ff_ps_init
00000000009be784 T _ff_ps_init_common
00000000009be9c0 T _ff_ps_init_fixed
000000000037a1e4 T _ff_ps_mul_pair_single_neon
0000000000369c34 T _ff_ps_read_data
000000000037a258 T _ff_ps_stereo_interpolate_ipdopd_neon
000000000037a20c T _ff_ps_stereo_interpolate_neon
0000000000f1b7e0 D _ff_psd_decoder
00000000009bf5d4 T _ff_psdsp_init
00000000009c0524 T _ff_psdsp_init_aarch64
00000000009bf580 T _ff_psdsp_init_fixed
0000000000f30388 D _ff_psp_muxer
00000000009ec0f8 T _ff_psy_end
00000000005f6d3c T _ff_psy_find_group
00000000009ebf3c T _ff_psy_init
00000000005f6d7c T _ff_psy_preprocess
00000000009ec260 T _ff_psy_preprocess_end
00000000009ec144 T _ff_psy_preprocess_init
0000000000f1b8d0 D _ff_ptx_decoder
0000000000801654 T _ff_put_bmp_header
0000000000603618 T _ff_put_dirac_pixels16_c
000000000060366c T _ff_put_dirac_pixels16_l2_c
00000000006036c8 T _ff_put_dirac_pixels16_l4_c
0000000000603624 T _ff_put_dirac_pixels32_c
000000000060367c T _ff_put_dirac_pixels32_l2_c
00000000006036e0 T _ff_put_dirac_pixels32_l4_c
000000000060360c T _ff_put_dirac_pixels8_c
000000000060365c T _ff_put_dirac_pixels8_l2_c
00000000006036b0 T _ff_put_dirac_pixels8_l4_c
0000000000801624 T _ff_put_guid
000000000037b22c T _ff_put_h264_chroma_mc2_neon
000000000037aef0 T _ff_put_h264_chroma_mc4_neon
000000000037abd4 T _ff_put_h264_chroma_mc8_neon
00000000003807f0 T _ff_put_h264_qpel16_mc00_neon
00000000003803f8 T _ff_put_h264_qpel16_mc01_neon
00000000003804d0 T _ff_put_h264_qpel16_mc02_neon
0000000000380580 T _ff_put_h264_qpel16_mc03_neon
00000000003803b0 T _ff_put_h264_qpel16_mc10_neon
000000000038041c T _ff_put_h264_qpel16_mc11_neon
00000000003804f0 T _ff_put_h264_qpel16_mc12_neon
000000000038058c T _ff_put_h264_qpel16_mc13_neon
00000000003803c8 T _ff_put_h264_qpel16_mc20_neon
000000000038046c T _ff_put_h264_qpel16_mc21_neon
0000000000380540 T _ff_put_h264_qpel16_mc22_neon
00000000003805a0 T _ff_put_h264_qpel16_mc23_neon
00000000003803e0 T _ff_put_h264_qpel16_mc30_neon
00000000003804b8 T _ff_put_h264_qpel16_mc31_neon
000000000038056c T _ff_put_h264_qpel16_mc32_neon
00000000003805b4 T _ff_put_h264_qpel16_mc33_neon
0000000000380df4 T _ff_put_h264_qpel8_mc00_neon
000000000037ff9c T _ff_put_h264_qpel8_mc01_neon
0000000000380084 T _ff_put_h264_qpel8_mc02_neon
000000000038012c T _ff_put_h264_qpel8_mc03_neon
000000000037ff48 T _ff_put_h264_qpel8_mc10_neon
000000000037ffc0 T _ff_put_h264_qpel8_mc11_neon
00000000003800a4 T _ff_put_h264_qpel8_mc12_neon
0000000000380138 T _ff_put_h264_qpel8_mc13_neon
000000000037ff64 T _ff_put_h264_qpel8_mc20_neon
0000000000380014 T _ff_put_h264_qpel8_mc21_neon
00000000003800f8 T _ff_put_h264_qpel8_mc22_neon
000000000038014c T _ff_put_h264_qpel8_mc23_neon
000000000037ff80 T _ff_put_h264_qpel8_mc30_neon
000000000038006c T _ff_put_h264_qpel8_mc31_neon
0000000000380118 T _ff_put_h264_qpel8_mc32_neon
0000000000380160 T _ff_put_h264_qpel8_mc33_neon
0000000000601dcc T _ff_put_no_rnd_qpel16_mc11_old_c
0000000000602aa0 T _ff_put_no_rnd_qpel16_mc12_old_c
00000000006029a8 T _ff_put_no_rnd_qpel16_mc13_old_c
0000000000602914 T _ff_put_no_rnd_qpel16_mc31_old_c
0000000000602b68 T _ff_put_no_rnd_qpel16_mc32_old_c
0000000000602a24 T _ff_put_no_rnd_qpel16_mc33_old_c
0000000000601468 T _ff_put_no_rnd_qpel8_mc11_old_c
0000000000601c8c T _ff_put_no_rnd_qpel8_mc12_old_c
0000000000601bac T _ff_put_no_rnd_qpel8_mc13_old_c
0000000000601b1c T _ff_put_no_rnd_qpel8_mc31_old_c
0000000000601d5c T _ff_put_no_rnd_qpel8_mc32_old_c
0000000000601c1c T _ff_put_no_rnd_qpel8_mc33_old_c
00000000003807f4 T _ff_put_pixels16_neon
0000000000380820 T _ff_put_pixels16_x2_neon
000000000038084c T _ff_put_pixels16_x2_no_rnd_neon
0000000000380900 T _ff_put_pixels16_xy2_neon
00000000003809b0 T _ff_put_pixels16_xy2_no_rnd_neon
0000000000380878 T _ff_put_pixels16_y2_neon
00000000003808bc T _ff_put_pixels16_y2_no_rnd_neon
0000000000603590 T _ff_put_pixels16x16_c
0000000000603608 T _ff_put_pixels8_l2_8
0000000000380df8 T _ff_put_pixels8_neon
0000000000380e24 T _ff_put_pixels8_x2_neon
0000000000380e50 T _ff_put_pixels8_x2_no_rnd_neon
0000000000380f04 T _ff_put_pixels8_xy2_neon
0000000000380f80 T _ff_put_pixels8_xy2_no_rnd_neon
0000000000380e7c T _ff_put_pixels8_y2_neon
0000000000380ec0 T _ff_put_pixels8_y2_no_rnd_neon
00000000006034f0 T _ff_put_pixels8x8_c
0000000000537878 T _ff_put_pixels_clamped_c
0000000000600608 T _ff_put_qpel16_mc11_old_c
0000000000601314 T _ff_put_qpel16_mc12_old_c
00000000006011ec T _ff_put_qpel16_mc13_old_c
0000000000601158 T _ff_put_qpel16_mc31_old_c
00000000006013dc T _ff_put_qpel16_mc32_old_c
0000000000601280 T _ff_put_qpel16_mc33_old_c
00000000005ffc10 T _ff_put_qpel8_mc11_old_c
00000000006004a0 T _ff_put_qpel8_mc12_old_c
0000000000600388 T _ff_put_qpel8_mc13_old_c
00000000006002f8 T _ff_put_qpel8_mc31_old_c
0000000000600584 T _ff_put_qpel8_mc32_old_c
0000000000600414 T _ff_put_qpel8_mc33_old_c
000000000037b748 T _ff_put_rv40_chroma_mc4_neon
000000000037b3a4 T _ff_put_rv40_chroma_mc8_neon
00000000003d9b98 T _ff_put_string
000000000037be50 T _ff_put_vc1_chroma_mc4_neon
000000000037baec T _ff_put_vc1_chroma_mc8_neon
0000000000385380 T _ff_put_vp8_bilin16_h_neon
000000000038544c T _ff_put_vp8_bilin16_hv_neon
00000000003853ec T _ff_put_vp8_bilin16_v_neon
0000000000385630 T _ff_put_vp8_bilin4_h_neon
00000000003856bc T _ff_put_vp8_bilin4_hv_neon
0000000000385678 T _ff_put_vp8_bilin4_v_neon
0000000000385518 T _ff_put_vp8_bilin8_h_neon
00000000003855ac T _ff_put_vp8_bilin8_hv_neon
0000000000385564 T _ff_put_vp8_bilin8_v_neon
00000000003843f4 T _ff_put_vp8_epel16_h6_neon
00000000003844a8 T _ff_put_vp8_epel16_h6v6_neon
00000000003842e8 T _ff_put_vp8_epel16_v6_neon
0000000000385174 T _ff_put_vp8_epel4_h4_neon
000000000038527c T _ff_put_vp8_epel4_h4v4_neon
0000000000384f2c T _ff_put_vp8_epel4_h4v6_neon
0000000000384d70 T _ff_put_vp8_epel4_h6_neon
0000000000385058 T _ff_put_vp8_epel4_h6v4_neon
0000000000384de8 T _ff_put_vp8_epel4_h6v6_neon
00000000003851d4 T _ff_put_vp8_epel4_v4_neon
0000000000384ca0 T _ff_put_vp8_epel4_v6_neon
000000000038493c T _ff_put_vp8_epel8_h4_neon
0000000000384aa8 T _ff_put_vp8_epel8_h4v4_neon
000000000038499c T _ff_put_vp8_epel8_h4v6_neon
0000000000384718 T _ff_put_vp8_epel8_h6_neon
0000000000384b98 T _ff_put_vp8_epel8_h6v4_neon
0000000000384790 T _ff_put_vp8_epel8_h6v6_neon
00000000003848b4 T _ff_put_vp8_epel8_v4_neon
0000000000384670 T _ff_put_vp8_epel8_v6_neon
0000000000384290 T _ff_put_vp8_pixels16_neon
00000000003842bc T _ff_put_vp8_pixels8_neon
00000000008010c8 T _ff_put_wav_header
0000000000f34b70 D _ff_pva_demuxer
0000000000f34c18 D _ff_pvf_demuxer
0000000000f1b9c0 D _ff_qcelp_decoder
0000000000ec9348 S _ff_qcelp_dynamic_handler
0000000000f34cc0 D _ff_qcp_demuxer
0000000000f1bab0 D _ff_qdm2_decoder
0000000000ec9390 S _ff_qdm2_dynamic_handler
0000000000f1bbb0 D _ff_qdmc_decoder
0000000000f1bcb0 D _ff_qdraw_decoder
000000000179e820 S _ff_qexp
000000000027e534 T _ff_qp_table_extract
0000000000f1bda0 D _ff_qpeg_decoder
00000000009ed130 T _ff_qpeldsp_init
0000000000ec9420 S _ff_qt_rtp_aud_handler
0000000000ec93d8 S _ff_qt_rtp_vid_handler
0000000000f1be90 D _ff_qtrle_decoder
0000000000f1bf80 D _ff_qtrle_encoder
0000000000c568f8 S _ff_quant3bA
00000000003624e4 T _ff_quantize_band_cost_cache_init
0000000000ec94b0 S _ff_quicktime_rtp_aud_handler
0000000000ec9468 S _ff_quicktime_rtp_vid_handler
0000000000f1c160 D _ff_r10k_decoder
0000000000f1c430 D _ff_r10k_encoder
0000000000f1c070 D _ff_r210_decoder
0000000000f1c340 D _ff_r210_encoder
0000000000f34d68 D _ff_r3d_demuxer
0000000000f1c610 D _ff_ra_144_decoder
0000000000f1c700 D _ff_ra_144_encoder
0000000000f1c7f0 D _ff_ra_288_decoder
000000000060c848 T _ff_rac_check_termination
000000000060c6fc T _ff_rac_terminate
0000000000f1c8e0 D _ff_ralf_decoder
00000000009edfc4 T _ff_rate_control_init
00000000009eebf4 T _ff_rate_control_uninit
000000000060cfbc T _ff_rate_estimate_qscale
00000000007fea14 T _ff_raw_audio_read_header
00000000007feaec T _ff_raw_data_read_header
0000000000ec7420 S _ff_raw_options
0000000000c3f148 S _ff_raw_pix_fmt_tags
00000000007fe980 T _ff_raw_read_partial_packet
00000000007feac0 T _ff_raw_subtitle_read_header
00000000007fea54 T _ff_raw_video_read_header
00000000007fece4 T _ff_raw_write_packet
0000000000f1c9d0 D _ff_rawvideo_decoder
0000000000f36860 D _ff_rawvideo_demuxer
0000000000f1cac0 D _ff_rawvideo_encoder
0000000000f36540 D _ff_rawvideo_muxer
0000000000ec7360 S _ff_rawvideo_options
00000000009eef9c T _ff_rdft_end
00000000009eeee0 T _ff_rdft_init
0000000000ec7780 S _ff_rdt_audio_handler
00000000007ff250 T _ff_rdt_calc_response_and_checksum
0000000000f36ba8 D _ff_rdt_demuxer
0000000000ec76f0 S _ff_rdt_live_audio_handler
0000000000ec76a8 S _ff_rdt_live_video_handler
00000000007ff24c T _ff_rdt_parse_close
00000000007ff384 T _ff_rdt_parse_header
00000000007ff198 T _ff_rdt_parse_open
00000000007ff5e8 T _ff_rdt_parse_packet
00000000007ff740 T _ff_rdt_subscribe_rule
0000000000ec7738 S _ff_rdt_video_handler
000000000083c360 T _ff_read_frame_flush
0000000000758934 T _ff_read_line_to_bprint
0000000000758a54 T _ff_read_line_to_bprint_overwrite
000000000083add8 T _ff_read_packet
0000000000800dbc T _ff_read_riff_info
00000000007ff77c T _ff_real_parse_sdp_a_line
0000000000f1cbb0 D _ff_realtext_decoder
0000000000f36908 D _ff_realtext_demuxer
0000000000f369b0 D _ff_redspark_demuxer
000000000083c1bc T _ff_reduce_index
00000000004390e0 T _ff_reget_buffer
0000000000ea7f58 S _ff_remove_extradata_bsf
0000000000757528 T _ff_rename
00000000008005f4 T _ff_replaygain_export
0000000000800588 T _ff_replaygain_export_raw
000000000025e5e0 T _ff_request_frame
00000000008562bc T _ff_resample_common_apply_filter_x4_float_neon
0000000000856318 T _ff_resample_common_apply_filter_x4_s16_neon
00000000008562e4 T _ff_resample_common_apply_filter_x8_float_neon
0000000000856340 T _ff_resample_common_apply_filter_x8_s16_neon
0000000000609d3c T _ff_rescale_rms
00000000005f8c30 T _ff_reset_entries
00000000007feedc T _ff_reshuffle_raw_rgb
0000000000acbf00 S _ff_reverse
0000000000ec94f8 S _ff_rfc4175_rtp_handler
000000000083da44 T _ff_rfps_add_frame
000000000083dd70 T _ff_rfps_calculate
000000000179f0e0 S _ff_rgb24toyv12
000000000087c364 T _ff_rgb24toyv12_c
0000000000ec77c8 S _ff_riff_info_conv
00000000008019e4 T _ff_riff_write_info
0000000000801968 T _ff_riff_write_info_tag
0000000000f1cca0 D _ff_rl2_decoder
0000000000f36a58 D _ff_rl2_demuxer
00000000009eefa4 T _ff_rl_init
00000000009ef12c T _ff_rl_init_vlc
0000000000f0dd70 D _ff_rl_intra_aic
0000000000f12500 D _ff_rl_mpeg1
0000000000f12650 D _ff_rl_mpeg2
0000000000f1f0b0 D _ff_rl_speedhq
0000000000f14540 D _ff_rl_table
000000000060f42c T _ff_rle_count_pixels
000000000060f4f8 T _ff_rle_encode
0000000000801d48 T _ff_rm_alloc_rmstream
0000000000ccc380 S _ff_rm_codec_tags
0000000000f36b00 D _ff_rm_demuxer
0000000000801d68 T _ff_rm_free_rmstream
0000000000ec78a8 S _ff_rm_metadata
0000000000f36cf8 D _ff_rm_muxer
000000000080275c T _ff_rm_parse_packet
0000000000801d74 T _ff_rm_read_mdpr_codecdata
000000000080524c T _ff_rm_reorder_sipr_data
0000000000802ee8 T _ff_rm_retrieve_cache
0000000000609bdc T _ff_rms
0000000000f1ce80 D _ff_roq_decoder
0000000000f2c810 D _ff_roq_demuxer
0000000000f099d0 D _ff_roq_dpcm_decoder
0000000000f1cd90 D _ff_roq_dpcm_encoder
0000000000f1cf70 D _ff_roq_encoder
0000000000f2c8b8 D _ff_roq_muxer
000000000087dc08 T _ff_rotate_slice
0000000000f36dc0 D _ff_rpl_demuxer
0000000000f1d060 D _ff_rpza_decoder
0000000000f1d150 D _ff_rpza_encoder
0000000000f36e68 D _ff_rsd_demuxer
0000000000f36f10 D _ff_rso_demuxer
0000000000f36fb8 D _ff_rso_muxer
00000000006136ac T _ff_rtjpeg_decode_frame_yuv420
0000000000613a60 T _ff_rtjpeg_decode_init
0000000000613a98 T _ff_rtjpeg_init
00000000008065b4 T _ff_rtmp_calc_digest
0000000000806674 T _ff_rtmp_calc_digest_pos
00000000008070a8 T _ff_rtmp_check_alloc_array
00000000008078b0 T _ff_rtmp_packet_create
0000000000807910 T _ff_rtmp_packet_destroy
0000000000807e7c T _ff_rtmp_packet_dump
0000000000807128 T _ff_rtmp_packet_read
00000000008071a0 T _ff_rtmp_packet_read_internal
0000000000807568 T _ff_rtmp_packet_write
0000000000ec7ba8 S _ff_rtmp_protocol
0000000000ec7cc0 S _ff_rtmpe_protocol
0000000000ec7dd8 S _ff_rtmps_protocol
0000000000ec7ef0 S _ff_rtmpt_protocol
0000000000ec8008 S _ff_rtmpte_protocol
0000000000ec8120 S _ff_rtmpts_protocol
0000000000815a94 T _ff_rtp_chain_mux_open
000000000080d09c T _ff_rtp_check_and_send_back_rr
000000000080cf50 T _ff_rtp_codec_id
0000000000f372b8 D _ff_rtp_demuxer
000000000080cf10 T _ff_rtp_enc_name
000000000080de38 T _ff_rtp_finalize_packet
000000000080cce8 T _ff_rtp_get_codec_info
0000000000818140 T _ff_rtp_get_local_rtp_port
000000000080cd78 T _ff_rtp_get_payload_type
000000000080d05c T _ff_rtp_handler_find_by_id
000000000080cff0 T _ff_rtp_handler_find_by_name
000000000080cfc8 T _ff_rtp_handler_iterate
0000000000f37148 D _ff_rtp_mpegts_muxer
0000000000f37080 D _ff_rtp_muxer
000000000080dc8c T _ff_rtp_parse_close
000000000080d608 T _ff_rtp_parse_open
000000000080d864 T _ff_rtp_parse_packet
000000000080d7d0 T _ff_rtp_parse_set_crypto
000000000080d7c4 T _ff_rtp_parse_set_dynamic_protocol
0000000000ec9a60 S _ff_rtp_protocol
000000000080d84c T _ff_rtp_queued_packet_time
000000000080d7fc T _ff_rtp_reset_packet_queue
000000000081574c T _ff_rtp_send_aac
0000000000815934 T _ff_rtp_send_amr
00000000008147ec T _ff_rtp_send_data
0000000000815ca0 T _ff_rtp_send_h261
0000000000815e28 T _ff_rtp_send_h263
0000000000815f08 T _ff_rtp_send_h263_rfc2190
0000000000816704 T _ff_rtp_send_h264_hevc
0000000000816b64 T _ff_rtp_send_jpeg
00000000008171a8 T _ff_rtp_send_latm
0000000000817620 T _ff_rtp_send_mpegvideo
000000000080d35c T _ff_rtp_send_punch_packets
000000000080d41c T _ff_rtp_send_rtcp_feedback
00000000008177d8 T _ff_rtp_send_vc2hq
0000000000817c34 T _ff_rtp_send_vp8
0000000000817d28 T _ff_rtp_send_vp9
0000000000817dec T _ff_rtp_send_xiph
0000000000818020 T _ff_rtp_set_remote_url
000000000081bd3c T _ff_rtsp_close_connections
0000000000819da0 T _ff_rtsp_close_streams
000000000081bd7c T _ff_rtsp_connect
0000000000f37360 D _ff_rtsp_demuxer
000000000081c584 T _ff_rtsp_fetch_packet
000000000081b458 T _ff_rtsp_make_setup_request
0000000000f37408 D _ff_rtsp_muxer
0000000000818e3c T _ff_rtsp_next_attr_and_value
0000000000819ee4 T _ff_rtsp_open_transport_ctx
0000000000ec9ea0 S _ff_rtsp_options
000000000081a04c T _ff_rtsp_parse_line
000000000081ddb0 T _ff_rtsp_parse_streaming_commands
000000000081abf0 T _ff_rtsp_read_reply
000000000081b338 T _ff_rtsp_send_cmd
000000000081b0b0 T _ff_rtsp_send_cmd_async
000000000081b344 T _ff_rtsp_send_cmd_with_content
000000000081e5ec T _ff_rtsp_setup_input_streams
000000000081fb4c T _ff_rtsp_setup_output_streams
000000000081ab20 T _ff_rtsp_skip_packet
000000000081e718 T _ff_rtsp_tcp_read_packet
000000000081fd74 T _ff_rtsp_tcp_write_packet
0000000000819cc4 T _ff_rtsp_undo_setup
0000000000f1d240 D _ff_rv10_decoder
0000000000614a38 T _ff_rv10_encode_picture_header
0000000000f1d430 D _ff_rv10_encoder
0000000000f1d330 D _ff_rv20_decoder
0000000000614bbc T _ff_rv20_encode_picture_header
0000000000f1d520 D _ff_rv20_encoder
0000000000f1d610 D _ff_rv30_decoder
0000000000f1d710 D _ff_rv30_parser
00000000009efc34 T _ff_rv30dsp_init
00000000009f023c T _ff_rv34_decode_end
00000000006171ac T _ff_rv34_decode_frame
00000000009efe0c T _ff_rv34_decode_init
00000000006170d0 T _ff_rv34_decode_update_thread_context
0000000000616fcc T _ff_rv34_get_start_offset
00000000009f0268 T _ff_rv34dsp_init
0000000000f1d790 D _ff_rv40_decoder
0000000000f1d750 D _ff_rv40_parser
00000000009f0590 T _ff_rv40dsp_init
00000000009c0e58 T _ff_rv40dsp_init_aarch64
0000000000613bb8 T _ff_rv_decode_dc
0000000000f12ea0 D _ff_rvlc_rl_inter
0000000000f12ff0 D _ff_rvlc_rl_intra
0000000000f1d880 D _ff_s302m_decoder
0000000000f1d970 D _ff_s302m_encoder
0000000000f374d0 D _ff_s337m_demuxer
0000000000f1da60 D _ff_sami_decoder
0000000000f37578 D _ff_sami_demuxer
0000000000f1db50 D _ff_sanm_decoder
0000000000f37620 D _ff_sap_demuxer
0000000000f376c8 D _ff_sap_muxer
00000000008215d4 T _ff_sauce_read
000000000062267c T _ff_sbc_calculate_bits
0000000000622614 T _ff_sbc_crc8
0000000000f1dc80 D _ff_sbc_decoder
0000000000f37790 D _ff_sbc_demuxer
0000000000f1dd70 D _ff_sbc_encoder
0000000000f36608 D _ff_sbc_muxer
0000000000f1dc40 D _ff_sbc_parser
0000000000c50448 S _ff_sbc_proto_4_40m0
0000000000c50498 S _ff_sbc_proto_4_40m1
0000000000c504e8 S _ff_sbc_proto_8_80m0
0000000000c50588 S _ff_sbc_proto_8_80m1
0000000000c508b0 S _ff_sbcdsp_analysis_consts_fixed4_simd_even
0000000000c50920 S _ff_sbcdsp_analysis_consts_fixed4_simd_odd
0000000000c50990 S _ff_sbcdsp_analysis_consts_fixed8_simd_even
0000000000c50ab0 S _ff_sbcdsp_analysis_consts_fixed8_simd_odd
00000000009f0c5c T _ff_sbcdsp_init
0000000000f37838 D _ff_sbg_demuxer
0000000000370f84 T _ff_sbr_apply
0000000000375f0c T _ff_sbr_apply_fixed
0000000000381d78 T _ff_sbr_autocorrelate_neon
0000000000381e28 T _ff_sbr_hf_apply_noise_0_neon
0000000000381e90 T _ff_sbr_hf_apply_noise_1_neon
0000000000381f00 T _ff_sbr_hf_apply_noise_2_neon
0000000000381f68 T _ff_sbr_hf_apply_noise_3_neon
0000000000381d4c T _ff_sbr_hf_g_filt_neon
0000000000381cc4 T _ff_sbr_hf_gen_neon
0000000000381ab8 T _ff_sbr_neg_odd_64_neon
0000000000aed310 S _ff_sbr_noise_table
0000000000aef8d0 S _ff_sbr_noise_table_fixed
0000000000381c80 T _ff_sbr_qmf_deint_bfly_neon
0000000000381c44 T _ff_sbr_qmf_deint_neg_neon
0000000000381c10 T _ff_sbr_qmf_post_shuffle_neon
0000000000381b24 T _ff_sbr_qmf_pre_shuffle_neon
0000000000381a50 T _ff_sbr_sum64x5_neon
0000000000381a98 T _ff_sbr_sum_square_neon
00000000009f0cd4 T _ff_sbrdsp_init
00000000009c0ea8 T _ff_sbrdsp_init_aarch64
00000000009f0d64 T _ff_sbrdsp_init_fixed
00000000001f0660 T _ff_scalarproduct_float_neon
000000000027e89c T _ff_scale_adjust_dimensions
000000000027e68c T _ff_scale_eval_dimensions
00000000017519d8 S _ff_scale_factor_modshift
000000000027d054 T _ff_scale_image
000000000179e840 S _ff_scale_mv_ref
00000000003ac994 T _ff_scale_vector_to_given_sum_of_squares
0000000000f378e0 D _ff_scc_demuxer
0000000000f37988 D _ff_scc_muxer
000000000027ea0c T _ff_scene_sad16_c
000000000027ea78 T _ff_scene_sad_c
000000000027ead0 T _ff_scene_sad_get_fn
0000000000f1de60 D _ff_scpr_decoder
0000000000f37210 D _ff_sdp_demuxer
0000000000818f1c T _ff_sdp_parse
0000000000823d84 T _ff_sdp_write_media
0000000000f37a50 D _ff_sdr2_demuxer
0000000000f37af8 D _ff_sds_demuxer
0000000000f09ac0 D _ff_sdx2_dpcm_decoder
0000000000f37ba0 D _ff_sdx_demuxer
0000000000b5915e S _ff_se_golomb_vlc_code
000000000083ca68 T _ff_seek_frame_binary
0000000000f37c48 D _ff_segafilm_demuxer
0000000000f37cf0 D _ff_segafilm_muxer
0000000000f37db8 D _ff_segment_muxer
0000000000f37f48 D _ff_ser_demuxer
000000000056e84c T _ff_set_cmp
0000000000279ae0 T _ff_set_common_channel_layouts
0000000000279c34 T _ff_set_common_formats
0000000000279b90 T _ff_set_common_samplerates
0000000000667704 T _ff_set_dimensions
00000000003ac9f0 T _ff_set_fixed_vector
000000000056952c T _ff_set_min_dist_lsf
00000000005a5a28 T _ff_set_mpeg4_time
00000000005b5aec T _ff_set_qscale
000000000066776c T _ff_set_sar
0000000000f1df50 D _ff_sgi_decoder
0000000000f1e040 D _ff_sgi_encoder
0000000000f1e130 D _ff_sgirle_decoder
0000000000f1e220 D _ff_sheervideo_decoder
0000000000f1e310 D _ff_shorten_decoder
0000000000f37ff0 D _ff_shorten_demuxer
00000000003d460c T _ff_side_data_set_encoder_stats
00000000003d46cc T _ff_side_data_set_prft
00000000006677e0 T _ff_side_data_update_matrix_encoding
0000000000f38140 D _ff_siff_demuxer
0000000000c1d4fe S _ff_silk_cosine
00000000005e1538 T _ff_silk_decode_superframe
00000000005e2c74 T _ff_silk_flush
00000000005e2c70 T _ff_silk_free
00000000005e2ca0 T _ff_silk_init
0000000000c1d16c S _ff_silk_lsf_codebook_nbmb
0000000000c1d2ac S _ff_silk_lsf_codebook_wb
0000000000c1d4ac S _ff_silk_lsf_min_spacing_nbmb
0000000000c1d4c2 S _ff_silk_lsf_min_spacing_wb
0000000000c1d4e4 S _ff_silk_lsf_ordering_nbmb
0000000000c1d4ee S _ff_silk_lsf_ordering_wb
0000000000c1ce3c S _ff_silk_lsf_pred_weights_nbmb
0000000000c1ce4e S _ff_silk_lsf_pred_weights_wb
0000000000c1cafc S _ff_silk_lsf_s2_model_sel_nbmb
0000000000c1cc3c S _ff_silk_lsf_s2_model_sel_wb
0000000000c1ce6c S _ff_silk_lsf_weight_sel_nbmb
0000000000c1cf8c S _ff_silk_lsf_weight_sel_wb
0000000000c1d6e4 S _ff_silk_ltp_filter0_taps
0000000000c1d70c S _ff_silk_ltp_filter1_taps
0000000000c1d75c S _ff_silk_ltp_filter2_taps
0000000000c1d7fc S _ff_silk_ltp_scale_factor
0000000000c1c2d0 S _ff_silk_model_exc_rate
0000000000c1c9da S _ff_silk_model_excitation_lsb
0000000000c1c9e0 S _ff_silk_model_excitation_sign
0000000000c1bcde S _ff_silk_model_frame_type_active
0000000000c1bcd8 S _ff_silk_model_frame_type_inactive
0000000000c1bd30 S _ff_silk_model_gain_delta
0000000000c1bce8 S _ff_silk_model_gain_highbits
0000000000c1bd1e S _ff_silk_model_gain_lowbits
0000000000c1bc6e S _ff_silk_model_lbrr_flags_40
0000000000c1bc78 S _ff_silk_model_lbrr_flags_60
0000000000c1c2c6 S _ff_silk_model_lcg_seed
0000000000c1c11c S _ff_silk_model_lsf_interpolation_offset
0000000000c1bd84 S _ff_silk_model_lsf_s1
0000000000c1be8c S _ff_silk_model_lsf_s2
0000000000c1c10c S _ff_silk_model_lsf_s2_ext
0000000000c1c240 S _ff_silk_model_ltp_filter
0000000000c1c248 S _ff_silk_model_ltp_filter0_sel
0000000000c1c25a S _ff_silk_model_ltp_filter1_sel
0000000000c1c27c S _ff_silk_model_ltp_filter2_sel
0000000000c1c2be S _ff_silk_model_ltp_scale_index
0000000000c1bcd2 S _ff_silk_model_mid_only
0000000000c1c1e0 S _ff_silk_model_pitch_contour_mbwb10ms
0000000000c1c1fa S _ff_silk_model_pitch_contour_mbwb20ms
0000000000c1c1c0 S _ff_silk_model_pitch_contour_nb10ms
0000000000c1c1c8 S _ff_silk_model_pitch_contour_nb20ms
0000000000c1c194 S _ff_silk_model_pitch_delta
0000000000c1c128 S _ff_silk_model_pitch_highbits
0000000000c1c174 S _ff_silk_model_pitch_lowbits_mb
0000000000c1c16a S _ff_silk_model_pitch_lowbits_nb
0000000000c1c182 S _ff_silk_model_pitch_lowbits_wb
0000000000c1c2f8 S _ff_silk_model_pulse_count
0000000000c1c49a S _ff_silk_model_pulse_location
0000000000c1bc8a S _ff_silk_model_stereo_s1
0000000000c1bcbe S _ff_silk_model_stereo_s2
0000000000c1bcc6 S _ff_silk_model_stereo_s3
0000000000c1d60c S _ff_silk_pitch_max_lag
0000000000c1d606 S _ff_silk_pitch_min_lag
0000000000c1d644 S _ff_silk_pitch_offset_mbwb10ms
0000000000c1d65c S _ff_silk_pitch_offset_mbwb20ms
0000000000c1d612 S _ff_silk_pitch_offset_nb10ms
0000000000c1d618 S _ff_silk_pitch_offset_nb20ms
0000000000c1d600 S _ff_silk_pitch_scale
0000000000c1d808 S _ff_silk_quant_offset
0000000000c1d802 S _ff_silk_shell_blocks
0000000000c1d80c S _ff_silk_stereo_interp_len
0000000000c1cadc S _ff_silk_stereo_weights
00000000006354b4 T _ff_simple_idct248_put
00000000006358c4 T _ff_simple_idct44_add
00000000006357f8 T _ff_simple_idct48_add
00000000006356d8 T _ff_simple_idct84_add
00000000006345d8 T _ff_simple_idct_add_int16_10bit
0000000000634dac T _ff_simple_idct_add_int16_12bit
0000000000633e38 T _ff_simple_idct_add_int16_8bit
000000000038242c T _ff_simple_idct_add_neon
0000000000634820 T _ff_simple_idct_int16_10bit
0000000000635010 T _ff_simple_idct_int16_12bit
0000000000634098 T _ff_simple_idct_int16_8bit
0000000000382728 T _ff_simple_idct_neon
0000000000634218 T _ff_simple_idct_put_int16_10bit
00000000006349a8 T _ff_simple_idct_put_int16_12bit
0000000000633a78 T _ff_simple_idct_put_int16_8bit
00000000006351c4 T _ff_simple_idct_put_int32_10bit
00000000003821a4 T _ff_simple_idct_put_neon
000000000177e920 S _ff_sine_1024
000000000178e8a0 S _ff_sine_1024_fixed
000000000177f920 S _ff_sine_128
000000000178f8a0 S _ff_sine_128_fixed
000000000177fb20 S _ff_sine_2048
000000000178faa0 S _ff_sine_2048_fixed
0000000001781b20 S _ff_sine_256
0000000001791aa0 S _ff_sine_256_fixed
0000000001781f20 S _ff_sine_32
0000000001791ea0 S _ff_sine_32_fixed
0000000001781fa0 S _ff_sine_4096
0000000001791f20 S _ff_sine_4096_fixed
0000000001785fa0 S _ff_sine_512
0000000001795f20 S _ff_sine_512_fixed
00000000017867a0 S _ff_sine_64
0000000001796720 S _ff_sine_64_fixed
00000000017868a0 S _ff_sine_8192
0000000001796820 S _ff_sine_8192_fixed
00000000009f1158 T _ff_sine_window_init
00000000009f11ec T _ff_sine_window_init_fixed
0000000000ea8888 S _ff_sine_windows
0000000000ea8940 S _ff_sine_windows_fixed
0000000000f36158 D _ff_singlejpeg_muxer
0000000000636b08 T _ff_sipr_decode_frame_16k
0000000000f1e520 D _ff_sipr_decoder
00000000009f146c T _ff_sipr_init_16k
0000000000f1e610 D _ff_sipr_parser
0000000000ccc410 S _ff_sipr_subpk_size
0000000000f1e650 D _ff_siren_decoder
0000000000ec5338 S _ff_skeleton_codec
0000000000bed2f8 S _ff_slen_table
000000000063b794 T _ff_slice_buffer_destroy
000000000063b744 T _ff_slice_buffer_flush
000000000063b5a4 T _ff_slice_buffer_init
000000000063b6a8 T _ff_slice_buffer_load_line
000000000063b720 T _ff_slice_buffer_release
00000000005f875c T _ff_slice_thread_execute_with_mainfunc
00000000005f86b8 T _ff_slice_thread_free
00000000005f87f0 T _ff_slice_thread_init
0000000000f337c0 D _ff_sln_demuxer
0000000000f1e830 D _ff_smackaud_decoder
0000000000f1e740 D _ff_smacker_decoder
0000000000f381e8 D _ff_smacker_demuxer
0000000000f1e920 D _ff_smc_decoder
000000000083001c T _ff_smil_extract_next_text_chunk
00000000008300e0 T _ff_smil_get_attr_ptr
0000000000f38290 D _ff_smjpeg_demuxer
0000000000f38338 D _ff_smjpeg_muxer
0000000000f38400 D _ff_smoothstreaming_muxer
0000000000f384c8 D _ff_smush_demuxer
0000000000f11730 D _ff_smvjpeg_decoder
0000000000639de4 T _ff_snappy_peek_uncompressed_length
0000000000639eac T _ff_snappy_uncompress
000000000063a464 T _ff_snow_alloc_blocks
00000000009f1e00 T _ff_snow_common_end
00000000009f1a28 T _ff_snow_common_init
000000000063af68 T _ff_snow_common_init_after_header
0000000000f1ea20 D _ff_snow_decoder
0000000000f1eb10 D _ff_snow_encoder
000000000063b390 T _ff_snow_frame_start
000000000063a2c0 T _ff_snow_get_buffer
000000000063bd48 T _ff_snow_horizontal_compose97i
000000000063a13c T _ff_snow_inner_add_yblock
000000000063a4e0 T _ff_snow_pred_block
000000000063b2d8 T _ff_snow_release_buffer
000000000063a390 T _ff_snow_reset_contexts
000000000063bf24 T _ff_snow_vertical_compose97i
00000000007ec058 T _ff_socket
00000000007faaf4 T _ff_socket_nonblock
0000000000f38570 D _ff_sol_demuxer
0000000000f09bb0 D _ff_sol_dpcm_decoder
0000000000f1ec00 D _ff_sonic_decoder
0000000000f1ecf0 D _ff_sonic_encoder
0000000000f1ede0 D _ff_sonic_ls_encoder
0000000000569b24 T _ff_sort_nearly_sorted_floats
0000000000f38618 D _ff_sox_demuxer
0000000000f386c0 D _ff_sox_muxer
0000000000f1eed0 D _ff_sp5x_decoder
000000000064a630 T _ff_sp5x_process_packet
000000000063b7f8 T _ff_spatial_dwt
000000000063c60c T _ff_spatial_idwt
000000000063bfa0 T _ff_spatial_idwt_buffered_init
000000000063c1bc T _ff_spatial_idwt_buffered_slice
000000000043a9cc T _ff_spatial_idwt_init
000000000043b418 T _ff_spatial_idwt_slice2
000000000082c9a0 T _ff_spdif_bswap_buf16
0000000000f38788 D _ff_spdif_demuxer
0000000000f38830 D _ff_spdif_muxer
000000000082ca40 T _ff_spdif_probe
000000000082ccc0 T _ff_spdif_read_packet
0000000000f1f200 D _ff_speedhq_decoder
00000000009f308c T _ff_speedhq_encode_init
000000000064b550 T _ff_speedhq_encode_mb
000000000064b374 T _ff_speedhq_encode_picture_header
0000000000f1f310 D _ff_speedhq_encoder
000000000064b454 T _ff_speedhq_end_slice
000000000064b874 T _ff_speedhq_mb_y_order_to_mb
0000000000ec5378 S _ff_speex_codec
0000000000beca52 S _ff_sprite_trajectory_lens
0000000000f32650 D _ff_spx_muxer
0000000000bac064 S _ff_sqrt_tab
0000000000bacaf8 S _ff_square_tab
0000000000f1f400 D _ff_srt_decoder
0000000000f388f8 D _ff_srt_demuxer
0000000000f1f5e0 D _ff_srt_encoder
0000000000f389a0 D _ff_srt_muxer
000000000082e70c T _ff_srtp_decrypt
000000000082eb50 T _ff_srtp_encrypt
000000000082e448 T _ff_srtp_free
0000000000ecc0b0 S _ff_srtp_protocol
000000000082e478 T _ff_srtp_set_crypto
0000000000f05800 D _ff_ssa_decoder
0000000000f059e0 D _ff_ssa_encoder
0000000000842864 T _ff_standardize_creation_time
0000000000800fe8 T _ff_start_tag
000000000064c1e8 T _ff_startcode_find_candidate_c
000000000177bf80 S _ff_static_rl_table_store
0000000000f20440 D _ff_stl_decoder
0000000000f38a68 D _ff_stl_demuxer
0000000000f34ac8 D _ff_str_demuxer
0000000000ccd1bc S _ff_stream1_guid
0000000000ccd2ec S _ff_stream2_guid
00000000008423cc T _ff_stream_add_bitstream_filter
0000000000840770 T _ff_stream_encode_params_copy
0000000000f37e80 D _ff_stream_segment_muxer
0000000000f2bec8 D _ff_streamhash_muxer
0000000000609d78 T _ff_subblock_synthesis
0000000000ecc308 S _ff_subfile_protocol
0000000000f1f4f0 D _ff_subrip_decoder
0000000000f1f6d0 D _ff_subrip_encoder
000000000082ffc8 T _ff_subtitles_queue_clean
000000000082fb3c T _ff_subtitles_queue_finalize
000000000082fa34 T _ff_subtitles_queue_insert
000000000082fd60 T _ff_subtitles_queue_read_packet
000000000082fdc4 T _ff_subtitles_queue_seek
0000000000830300 T _ff_subtitles_read_chunk
000000000083035c T _ff_subtitles_read_line
00000000008301f8 T _ff_subtitles_read_text_chunk
0000000000f20620 D _ff_subviewer1_decoder
0000000000f38b10 D _ff_subviewer1_demuxer
0000000000f1f8b0 D _ff_subviewer_decoder
0000000000f38bb8 D _ff_subviewer_demuxer
0000000000f1f9a0 D _ff_sunrast_decoder
0000000000f1fa90 D _ff_sunrast_encoder
0000000000f38c60 D _ff_sup_demuxer
0000000000f38d08 D _ff_sup_muxer
0000000000f38dd0 D _ff_svag_demuxer
0000000000c5d3b8 S _ff_svq1_block_type_vlc
0000000000f1fb80 D _ff_svq1_decoder
0000000000f1fc80 D _ff_svq1_encoder
0000000000c5e080 S _ff_svq1_frame_size_table
0000000000ea9168 S _ff_svq1_inter_codebooks
0000000000c5d880 S _ff_svq1_inter_mean_vlc
0000000000c5d420 S _ff_svq1_inter_multistage_vlc
0000000000ea9198 S _ff_svq1_intra_codebooks
0000000000c5d480 S _ff_svq1_intra_mean_vlc
0000000000c5d3c0 S _ff_svq1_intra_multistage_vlc
0000000000f1fd70 D _ff_svq3_decoder
0000000000ec9540 S _ff_svq3_dynamic_handler
0000000000f38e78 D _ff_svs_demuxer
0000000000e7ca38 S _ff_swb_offset_1024
0000000000e7cc40 S _ff_swb_offset_120
0000000000e7cbd8 S _ff_swb_offset_128
0000000000e7cb70 S _ff_swb_offset_480
0000000000e7cb08 S _ff_swb_offset_512
0000000000e7caa0 S _ff_swb_offset_960
0000000000cccbc0 S _ff_swf_codec_tags
0000000000f38f20 D _ff_swf_demuxer
0000000000f38fc8 D _ff_swf_muxer
000000000085e878 T _ff_sws_alphablendaway
0000000000ed06a0 S _ff_sws_context_class
0000000000a060ac T _ff_sws_init_input_funcs
0000000000a06acc T _ff_sws_init_output_funcs
0000000000a07980 T _ff_sws_init_range_convert
0000000000a06038 T _ff_sws_init_swscale_aarch64
0000000000a07698 T _ff_sws_rgb2rgb_init
0000000000ccd1cc S _ff_sync_guid
0000000000c50628 S _ff_synmatrix4
0000000000c506a8 S _ff_synmatrix8
00000000003829b8 T _ff_synth_filter_float_neon
00000000009f3e40 T _ff_synth_filter_init
00000000009c0f54 T _ff_synth_filter_init_aarch64
0000000000609b34 T _ff_t_sqrt
0000000000befbf0 S _ff_table0_dc_chroma
0000000000bef830 S _ff_table0_dc_lum
0000000000bf0370 S _ff_table1_dc_chroma
0000000000beffb0 S _ff_table1_dc_lum
0000000000ccd26a S _ff_table_0_entries_legacy_attrib_le16
0000000000ccd2a4 S _ff_table_0_entries_time_le16
0000000001751a58 S _ff_table_4_3_exp
0000000001759a94 S _ff_table_4_3_value
0000000000bf4282 S _ff_table_inter_intra
0000000000bef430 S _ff_table_mb_non_intra
000000000065c19c T _ff_tadd_bytes_metadata
000000000065bf28 T _ff_tadd_doubles_metadata
000000000065be00 T _ff_tadd_long_metadata
000000000065bce8 T _ff_tadd_rational_metadata
000000000065c04c T _ff_tadd_shorts_metadata
000000000065c32c T _ff_tadd_string_metadata
000000000055643c T _ff_tag_tree_size
00000000005564b4 T _ff_tag_tree_zero
0000000000652f18 T _ff_tak_check_crc
0000000000653220 T _ff_tak_decode_frame_header
0000000000f1fea0 D _ff_tak_decoder
0000000000f39158 D _ff_tak_demuxer
0000000000652f88 T _ff_tak_parse_streaminfo
0000000000f1fe60 D _ff_tak_parser
00000000009f3ecc T _ff_takdsp_init
0000000000f1ff90 D _ff_targa_decoder
0000000000f20170 D _ff_targa_encoder
0000000000f20080 D _ff_targa_y216_decoder
0000000000ecc538 S _ff_tcp_protocol
000000000065c3c0 T _ff_tdecode_header
0000000000f39200 D _ff_tedcaptions_demuxer
0000000000f392a8 D _ff_tee_muxer
0000000000834df0 T _ff_tee_parse_slave_options
0000000000ecca78 S _ff_tee_protocol
0000000000e98868 S _ff_text2movsub_bsf
0000000000f20260 D _ff_text_decoder
0000000000f1f7c0 D _ff_text_encoder
000000000082f9b4 T _ff_text_eof
000000000082f674 T _ff_text_init_avio
000000000082f774 T _ff_text_init_buf
000000000082f9e4 T _ff_text_peek_r8
000000000082f7dc T _ff_text_pos
000000000082f810 T _ff_text_r8
000000000082f97c T _ff_text_read
00000000009f3f60 T _ff_texturedsp_init
0000000000f30450 D _ff_tg2_muxer
000000000065bc8c T _ff_tget
000000000065bc40 T _ff_tget_double
000000000065bbf8 T _ff_tget_long
000000000065bbb0 T _ff_tget_short
0000000000f301f8 D _ff_tgp_muxer
0000000000ec53b8 S _ff_theora_codec
0000000000f22e60 D _ff_theora_decoder
0000000000ec9660 S _ff_theora_dynamic_handler
0000000000f11640 D _ff_thp_decoder
0000000000f39370 D _ff_thp_demuxer
00000000005f76b0 T _ff_thread_await_progress
00000000005f8a08 T _ff_thread_await_progress2
00000000005f8184 T _ff_thread_can_start_frame
00000000005f6f04 T _ff_thread_decode_frame
00000000005f7758 T _ff_thread_finish_setup
00000000005f80b8 T _ff_thread_flush
00000000005f6ef0 T _ff_thread_free
00000000005f82b8 T _ff_thread_get_buffer
00000000005f81e0 T _ff_thread_get_format
00000000005f6dfc T _ff_thread_init
000000000066a2e0 T _ff_thread_ref_frame
00000000005f846c T _ff_thread_release_buffer
00000000005f7618 T _ff_thread_report_progress
00000000005f8998 T _ff_thread_report_progress2
000000000048099c T _ff_thread_video_encode_frame
0000000000f25db0 D _ff_threedostr_demuxer
0000000000319900 T _ff_threshold_init
0000000000f39418 D _ff_tiertexseq_demuxer
0000000000f20710 D _ff_tiertexseqvideo_decoder
0000000000ea9b58 S _ff_tiff_angular_unit_codes
0000000000ea97e8 S _ff_tiff_conf_name_type_map
0000000000eaf6e0 S _ff_tiff_coord_trans_codes
0000000000f20800 D _ff_tiff_decoder
0000000000eaa5b0 S _ff_tiff_ellipsoid_codes
0000000000f208f0 D _ff_tiff_encoder
0000000000ea9b98 S _ff_tiff_gcs_type_codes
0000000000ea9fc0 S _ff_tiff_gcse_type_codes
0000000000eaa0d8 S _ff_tiff_geodetic_datum_codes
0000000000eaa498 S _ff_tiff_geodetic_datum_e_codes
0000000000ea9818 S _ff_tiff_geog_name_type_map
0000000000ea9ab8 S _ff_tiff_gt_model_type_codes
0000000000ea9ad0 S _ff_tiff_gt_raster_type_codes
0000000000ea9ae0 S _ff_tiff_linear_unit_codes
0000000000eaf8b8 S _ff_tiff_ortho_vert_cs_codes
0000000000eaa6c8 S _ff_tiff_prime_meridian_codes
0000000000eaa720 S _ff_tiff_proj_cs_type_codes
0000000000ea98f8 S _ff_tiff_proj_name_type_map
0000000000eae440 S _ff_tiff_projection_codes
0000000000eaf7b8 S _ff_tiff_vert_cs_codes
0000000000ea9a78 S _ff_tiff_vert_name_type_map
00000000003ac3e8 T _ff_tilt_compensation
0000000000ccd21c S _ff_timeline_le16
0000000000ccd22c S _ff_timeline_table_0_entries_Events_le16
0000000000ccd18c S _ff_timestamp_guid
000000000065bb78 T _ff_tis_ifd
000000000025e584 T _ff_tlog_link
000000000025dba0 T _ff_tlog_ref
00000000007ebec8 T _ff_tls_deinit
00000000007ebec0 T _ff_tls_init
0000000000f209e0 D _ff_tmv_decoder
0000000000f394c0 D _ff_tmv_demuxer
0000000000af62f0 S _ff_tns_max_bands_1024
0000000000af6317 S _ff_tns_max_bands_128
0000000000af630a S _ff_tns_max_bands_480
0000000000af62fd S _ff_tns_max_bands_512
00000000009f4220 T _ff_tpeldsp_init
0000000000eafb00 S _ff_trace_headers_bsf
000000000065c46c T _ff_tread_tag
0000000000eafb40 S _ff_truehd_core_bsf
0000000000f11b40 D _ff_truehd_decoder
0000000000f2fbd0 D _ff_truehd_demuxer
0000000000f11d30 D _ff_truehd_encoder
0000000000f366d0 D _ff_truehd_muxer
0000000000f20ad0 D _ff_truemotion1_decoder
0000000000f20bc0 D _ff_truemotion2_decoder
0000000000f20cb0 D _ff_truemotion2rt_decoder
0000000000f20da0 D _ff_truespeech_decoder
0000000000f20e90 D _ff_tscc2_decoder
0000000000f20f90 D _ff_tta_decoder
0000000000f39568 D _ff_tta_demuxer
0000000000f21080 D _ff_tta_encoder
0000000000c61318 S _ff_tta_filter_configs
00000000006641b8 T _ff_tta_filter_init
0000000000f39610 D _ff_tta_muxer
0000000000664198 T _ff_tta_rice_init
0000000000c61278 S _ff_tta_shift_1
0000000000eafd28 S _ff_tta_shift_16
00000000009f4b38 T _ff_ttadsp_init
00000000009f4c34 T _ff_ttaencdsp_init
0000000000f396d8 D _ff_tty_demuxer
00000000009f4c44 T _ff_twinvq_decode_close
0000000000664bdc T _ff_twinvq_decode_frame
00000000009f4cc4 T _ff_twinvq_decode_init
0000000000f21170 D _ff_twinvq_decoder
0000000000c61358 S _ff_twinvq_wtype_to_ftype_table
000000000020aa24 T _ff_tx_gen_compound_mapping
000000000020ad00 T _ff_tx_gen_ptwo_revtab
000000000020adf8 T _ff_tx_init_mdct_fft_double
000000000020e3d8 T _ff_tx_init_mdct_fft_float
0000000000211a50 T _ff_tx_init_mdct_fft_int32
000000000020aa00 T _ff_tx_type_is_mdct
0000000000f21260 D _ff_txd_decoder
0000000000f39780 D _ff_txd_demuxer
0000000000f39828 D _ff_ty_demuxer
00000000008379f8 T _ff_udp_get_local_port
0000000000eccce8 S _ff_udp_protocol
0000000000837880 T _ff_udp_set_remote_url
0000000000ecce00 S _ff_udplite_protocol
0000000000b5935e S _ff_ue_golomb_len
0000000000b58f5e S _ff_ue_golomb_vlc_code
0000000000f21350 D _ff_ulti_decoder
0000000000f398d0 D _ff_uncodedframecrc_muxer
0000000000ecd3d8 S _ff_unix_protocol
000000000083a0d4 T _ff_unlock_avformat
000000000083c468 T _ff_update_cur_dts
00000000005b26fc T _ff_update_duplicate_context
00000000002642e4 T _ff_update_hdr_metadata
000000000025e0ec T _ff_update_link_current_pts
00000000005b1ad8 T _ff_update_picture_tables
0000000000839844 T _ff_url_decompose
00000000008396bc T _ff_url_join
00000000007fc9a0 T _ff_urlcontext_child_class_iterate
00000000007fc94c T _ff_urlcontext_child_class_next
0000000000839ee4 T _ff_urldecode
0000000000f21480 D _ff_utvideo_decoder
0000000000f21570 D _ff_utvideo_encoder
00000000009f5d48 T _ff_utvideodsp_init
0000000000f21660 D _ff_v210_decoder
0000000000f399d8 D _ff_v210_demuxer
0000000000f21750 D _ff_v210_encoder
00000000009f6148 T _ff_v210dec_init
00000000009f61a8 T _ff_v210enc_init
0000000000f21840 D _ff_v210x_decoder
0000000000f39a80 D _ff_v210x_demuxer
000000000177c8a4 S _ff_v2_dc_chroma_table
000000000177d8a4 S _ff_v2_dc_lum_table
0000000000bf411a S _ff_v2_intra_cbpc
0000000000bf410a S _ff_v2_mb_type
0000000000f21930 D _ff_v308_decoder
0000000000f21a20 D _ff_v308_encoder
000000000031ed60 T _ff_v360_init
0000000000f21c00 D _ff_v408_decoder
0000000000f21de0 D _ff_v408_encoder
0000000000f21ed0 D _ff_v410_decoder
0000000000f21fc0 D _ff_v410_encoder
0000000000ef81d0 D _ff_vaf_spectrumsynth
0000000000f39b28 D _ff_vag_demuxer
0000000000f220b0 D _ff_vb_decoder
0000000000f221a0 D _ff_vble_decoder
000000000060ce44 T _ff_vbv_update
0000000000c916c0 S _ff_vc1_1ref_mvdata_bits
0000000000c91240 S _ff_vc1_1ref_mvdata_codes
000000000179e940 S _ff_vc1_1ref_mvdata_vlc
0000000000c91052 S _ff_vc1_2mv_block_pattern_bits
0000000000c91042 S _ff_vc1_2mv_block_pattern_codes
000000000179e9a0 S _ff_vc1_2mv_block_pattern_vlc
0000000000c927a0 S _ff_vc1_2ref_mvdata_bits
0000000000c917e0 S _ff_vc1_2ref_mvdata_codes
000000000179ea00 S _ff_vc1_2ref_mvdata_vlc
0000000000c91002 S _ff_vc1_4mv_block_pattern_bits
0000000000c90fc2 S _ff_vc1_4mv_block_pattern_codes
000000000179eac0 S _ff_vc1_4mv_block_pattern_vlc
000000000179eb20 S _ff_vc1_ac_coeff_table
0000000000c93ba4 S _ff_vc1_ac_sizes
0000000000c939ee S _ff_vc1_adv_interlaced_4x4_zz
0000000000c939ce S _ff_vc1_adv_interlaced_4x8_zz
0000000000c939ae S _ff_vc1_adv_interlaced_8x4_zz
0000000000c9396e S _ff_vc1_adv_interlaced_8x8_zz
0000000000c9394e S _ff_vc1_adv_progressive_4x8_zz
0000000000c9392e S _ff_vc1_adv_progressive_8x4_zz
0000000000c93b6c S _ff_vc1_b_field_mvpred_scales
00000000006819e8 T _ff_vc1_b_intfi_loop_filter
0000000000c90e3e S _ff_vc1_bfraction_bits
0000000000c90e55 S _ff_vc1_bfraction_codes
0000000000c90e10 S _ff_vc1_bfraction_lut
000000000179ebe0 S _ff_vc1_bfraction_vlc
0000000000c92db0 S _ff_vc1_cbpcy_p_bits
0000000000c92bb0 S _ff_vc1_cbpcy_p_codes
000000000179ebf8 S _ff_vc1_cbpcy_p_vlc
00000000006730e0 T _ff_vc1_decode_blocks
00000000009f7060 T _ff_vc1_decode_end
0000000000670844 T _ff_vc1_decode_entry_point
00000000009f6d34 T _ff_vc1_decode_init_alloc_tables
0000000000670028 T _ff_vc1_decode_sequence_header
0000000000f222e0 D _ff_vc1_decoder
0000000000f39bd0 D _ff_vc1_demuxer
0000000000c93a00 S _ff_vc1_dqscale
0000000000c93afc S _ff_vc1_field_mvpred_scales
0000000000c90da8 S _ff_vc1_fps_dr
0000000000c90d8c S _ff_vc1_fps_nr
000000000067dbb0 T _ff_vc1_i_loop_filter
000000000067d3a0 T _ff_vc1_i_overlap_filter
0000000000c932a0 S _ff_vc1_icbpcy_p_bits
0000000000c92eb0 S _ff_vc1_icbpcy_p_codes
000000000179ec58 S _ff_vc1_icbpcy_vlc
0000000000c9120e S _ff_vc1_if_1mv_mbmode_bits
0000000000c911de S _ff_vc1_if_1mv_mbmode_codes
000000000179ed18 S _ff_vc1_if_1mv_mbmode_vlc
0000000000c9119e S _ff_vc1_if_mmv_mbmode_bits
0000000000c9115e S _ff_vc1_if_mmv_mbmode_codes
000000000179edd8 S _ff_vc1_if_mmv_mbmode_vlc
0000000000c90ef3 S _ff_vc1_imode_bits
0000000000c90eec S _ff_vc1_imode_codes
000000000179ee98 S _ff_vc1_imode_vlc
00000000009f6558 T _ff_vc1_init_common
00000000009f715c T _ff_vc1_init_transposed_scantables
0000000000684b1c T _ff_vc1_interp_mc
0000000000c910da S _ff_vc1_intfr_4mv_mbmode_bits
0000000000c91062 S _ff_vc1_intfr_4mv_mbmode_codes
000000000179eeb0 S _ff_vc1_intfr_4mv_mbmode_vlc
0000000000c9113a S _ff_vc1_intfr_non4mv_mbmode_bits
0000000000c91116 S _ff_vc1_intfr_non4mv_mbmode_codes
000000000179ef10 S _ff_vc1_intfr_non4mv_mbmode_vlc
0000000000c90d12 S _ff_vc1_mbmode_intfrp
0000000000682698 T _ff_vc1_mc_1mv
0000000000683aa4 T _ff_vc1_mc_4mv_chroma
0000000000684510 T _ff_vc1_mc_4mv_chroma4
0000000000683110 T _ff_vc1_mc_4mv_luma
0000000000f36798 D _ff_vc1_muxer
0000000000c937fa S _ff_vc1_mv_diff_bits
0000000000c935b2 S _ff_vc1_mv_diff_codes
000000000179ef70 S _ff_vc1_mv_diff_vlc
0000000000c90d00 S _ff_vc1_mv_pmode_table
0000000000c90d0a S _ff_vc1_mv_pmode_table2
0000000000c90efe S _ff_vc1_norm2_bits
0000000000c90efa S _ff_vc1_norm2_codes
000000000179efd0 S _ff_vc1_norm2_vlc
0000000000c90f82 S _ff_vc1_norm6_bits
0000000000c90f02 S _ff_vc1_norm6_codes
000000000179efe8 S _ff_vc1_norm6_vlc
000000000068091c T _ff_vc1_p_intfr_loop_filter
000000000067e4fc T _ff_vc1_p_loop_filter
000000000067d7d4 T _ff_vc1_p_overlap_filter
0000000000670a84 T _ff_vc1_parse_frame_header
00000000006719e8 T _ff_vc1_parse_frame_header_adv
0000000000f222a0 D _ff_vc1_parser
0000000000c90e6c S _ff_vc1_pixel_aspect
0000000000c90db0 S _ff_vc1_pquant_table
0000000000687924 T _ff_vc1_pred_b_mv
0000000000687ea0 T _ff_vc1_pred_b_mv_intfi
0000000000685ac4 T _ff_vc1_pred_mv
00000000006872bc T _ff_vc1_pred_mv_intfr
0000000000c9391e S _ff_vc1_simple_progressive_4x4_zz
0000000000c93585 S _ff_vc1_subblkpat_bits
0000000000c93558 S _ff_vc1_subblkpat_codes
000000000179f000 S _ff_vc1_subblkpat_vlc
0000000000c93540 S _ff_vc1_ttblk_bits
0000000000c93528 S _ff_vc1_ttblk_codes
0000000000c90c90 S _ff_vc1_ttblk_to_tt
000000000179f048 S _ff_vc1_ttblk_vlc
0000000000c90cf0 S _ff_vc1_ttfrm_to_tt
0000000000c934f8 S _ff_vc1_ttmb_bits
0000000000c93498 S _ff_vc1_ttmb_codes
000000000179f090 S _ff_vc1_ttmb_vlc
00000000009f779c T _ff_vc1dsp_init
00000000009c0f80 T _ff_vc1dsp_init_aarch64
0000000000f225b0 D _ff_vc1image_decoder
0000000000f39c78 D _ff_vc1t_demuxer
0000000000f39d20 D _ff_vc1t_muxer
0000000000f226a0 D _ff_vc2_encoder
00000000009f8300 T _ff_vc2enc_free_transforms
00000000009f8264 T _ff_vc2enc_init_transforms
0000000000ec9588 S _ff_vc2hq_dynamic_handler
0000000000f22790 D _ff_vcr1_decoder
00000000001f04fc T _ff_vector_dmul_scalar_neon
00000000001f0460 T _ff_vector_fmac_scalar_neon
00000000001f05b4 T _ff_vector_fmul_add_neon
00000000001f042c T _ff_vector_fmul_neon
00000000001f05ec T _ff_vector_fmul_reverse_neon
00000000001f0498 T _ff_vector_fmul_scalar_neon
00000000001f0530 T _ff_vector_fmul_window_neon
0000000000ef8250 D _ff_vf_addroi
0000000000efa6d0 D _ff_vf_alphaextract
0000000000ef82d0 D _ff_vf_alphamerge
0000000000ef8350 D _ff_vf_amplify
0000000000ef84d0 D _ff_vf_atadenoise
0000000000ef8550 D _ff_vf_avgblur
0000000000ef85d0 D _ff_vf_bbox
0000000000ef6d50 D _ff_vf_bench
0000000000ef8650 D _ff_vf_bilateral
0000000000ef86d0 D _ff_vf_bitplanenoise
0000000000ef8750 D _ff_vf_blackdetect
0000000000ef87d0 D _ff_vf_blackframe
0000000000ef8850 D _ff_vf_blend
0000000000ef8950 D _ff_vf_bm3d
0000000000ef89d0 D _ff_vf_boxblur
0000000000ef8a50 D _ff_vf_bwdif
0000000000ef8ad0 D _ff_vf_cas
0000000000ef8bd0 D _ff_vf_chromahold
0000000000ef8b50 D _ff_vf_chromakey
0000000000ef8c50 D _ff_vf_chromanr
0000000000ef8cd0 D _ff_vf_chromashift
0000000000ef8dd0 D _ff_vf_ciescope
0000000000ef8e50 D _ff_vf_codecview
0000000000ef8ed0 D _ff_vf_colorbalance
0000000000ef8f50 D _ff_vf_colorchannelmixer
0000000000ef90d0 D _ff_vf_colorhold
0000000000ef9050 D _ff_vf_colorkey
0000000000ef9150 D _ff_vf_colorlevels
0000000000ef91d0 D _ff_vf_colormatrix
0000000000ef9250 D _ff_vf_colorspace
0000000000ef92d0 D _ff_vf_colortemperature
0000000000ef9350 D _ff_vf_convolution
0000000000ef95d0 D _ff_vf_convolve
0000000000ef96d0 D _ff_vf_copy
0000000000ef9750 D _ff_vf_cover_rect
0000000000ef97d0 D _ff_vf_crop
0000000000ef9850 D _ff_vf_cropdetect
0000000000ef6e50 D _ff_vf_cue
0000000000ef98d0 D _ff_vf_curves
0000000000ef9950 D _ff_vf_datascope
0000000000ef9ad0 D _ff_vf_dblur
0000000000ef9b50 D _ff_vf_dctdnoiz
0000000000ef9bd0 D _ff_vf_deband
0000000000ef9c50 D _ff_vf_deblock
0000000000ef9cd0 D _ff_vf_decimate
0000000000ef9650 D _ff_vf_deconvolve
0000000000ef9d50 D _ff_vf_dedot
0000000000efc850 D _ff_vf_deflate
0000000000ef9dd0 D _ff_vf_deflicker
0000000000ef9e50 D _ff_vf_dejudder
0000000000ef9ed0 D _ff_vf_delogo
0000000000ef9f50 D _ff_vf_derain
0000000000ef9fd0 D _ff_vf_deshake
0000000000efa050 D _ff_vf_despill
0000000000efa0d0 D _ff_vf_detelecine
0000000000efc7d0 D _ff_vf_dilation
0000000000efa150 D _ff_vf_displace
0000000000efa1d0 D _ff_vf_dnn_processing
0000000000eff250 D _ff_vf_doubleweave
0000000000efa250 D _ff_vf_drawbox
0000000000ef6f50 D _ff_vf_drawgraph
0000000000efa2d0 D _ff_vf_drawgrid
0000000000efa350 D _ff_vf_edgedetect
0000000000efa3d0 D _ff_vf_elbg
0000000000efa450 D _ff_vf_entropy
0000000000efa4d0 D _ff_vf_epx
0000000000efa550 D _ff_vf_eq
0000000000efc750 D _ff_vf_erosion
0000000000efa5d0 D _ff_vf_estdif
0000000000efa650 D _ff_vf_extractplanes
0000000000efa750 D _ff_vf_fade
0000000000efa7d0 D _ff_vf_fftdnoiz
0000000000efa850 D _ff_vf_fftfilt
0000000000efa8d0 D _ff_vf_field
0000000000efa950 D _ff_vf_fieldhint
0000000000efa9d0 D _ff_vf_fieldmatch
0000000000efaa50 D _ff_vf_fieldorder
0000000000ef7bd0 D _ff_vf_fifo
0000000000efaad0 D _ff_vf_fillborders
0000000000efab50 D _ff_vf_find_rect
0000000000efabd0 D _ff_vf_floodfill
0000000000efac50 D _ff_vf_format
0000000000efad50 D _ff_vf_fps
0000000000efadd0 D _ff_vf_framepack
0000000000efae50 D _ff_vf_framerate
0000000000efaed0 D _ff_vf_framestep
0000000000efaf50 D _ff_vf_freezedetect
0000000000efafd0 D _ff_vf_freezeframes
0000000000efb050 D _ff_vf_fspp
0000000000efb0d0 D _ff_vf_gblur
0000000000efb150 D _ff_vf_geq
0000000000efb1d0 D _ff_vf_gradfun
0000000000ef70d0 D _ff_vf_graphmonitor
0000000000ef8fd0 D _ff_vf_greyedge
0000000000efbed0 D _ff_vf_haldclut
0000000000efb250 D _ff_vf_hflip
0000000000efb2d0 D _ff_vf_histeq
0000000000efb350 D _ff_vf_histogram
0000000000efb450 D _ff_vf_hqdn3d
0000000000efb4d0 D _ff_vf_hqx
0000000000efe2d0 D _ff_vf_hstack
0000000000efb550 D _ff_vf_hue
0000000000efb5d0 D _ff_vf_hwdownload
0000000000efb650 D _ff_vf_hwmap
0000000000efb6d0 D _ff_vf_hwupload
0000000000efb750 D _ff_vf_hysteresis
0000000000efb7d0 D _ff_vf_idet
0000000000efb850 D _ff_vf_il
0000000000efc8d0 D _ff_vf_inflate
0000000000efe8d0 D _ff_vf_interlace
0000000000ef71d0 D _ff_vf_interleave
0000000000efb8d0 D _ff_vf_kerndeint
0000000000ef9550 D _ff_vf_kirsch
0000000000efb950 D _ff_vf_lagfun
0000000000efb9d0 D _ff_vf_lenscorrection
0000000000efba50 D _ff_vf_limiter
0000000000ef7350 D _ff_vf_loop
0000000000efbad0 D _ff_vf_lumakey
0000000000efbb50 D _ff_vf_lut
0000000000efbf50 D _ff_vf_lut1d
0000000000efbd50 D _ff_vf_lut2
0000000000efbe50 D _ff_vf_lut3d
0000000000efbc50 D _ff_vf_lutrgb
0000000000efbbd0 D _ff_vf_lutyuv
0000000000efbfd0 D _ff_vf_maskedclamp
0000000000efc150 D _ff_vf_maskedmax
0000000000efc050 D _ff_vf_maskedmerge
0000000000efc0d0 D _ff_vf_maskedmin
0000000000efc1d0 D _ff_vf_maskedthreshold
0000000000efc250 D _ff_vf_maskfun
0000000000efc2d0 D _ff_vf_mcdeint
0000000000efc350 D _ff_vf_median
0000000000efc3d0 D _ff_vf_mergeplanes
0000000000efc450 D _ff_vf_mestimate
0000000000ef7450 D _ff_vf_metadata
0000000000efc4d0 D _ff_vf_midequalizer
0000000000efc550 D _ff_vf_minterpolate
0000000000efc5d0 D _ff_vf_mix
0000000000efc6d0 D _ff_vf_mpdecimate
0000000000efbcd0 D _ff_vf_negate
0000000000efc950 D _ff_vf_nlmeans
0000000000efc9d0 D _ff_vf_nnedi
0000000000efacd0 D _ff_vf_noformat
0000000000efca50 D _ff_vf_noise
0000000000efcad0 D _ff_vf_normalize
0000000000efcb50 D _ff_vf_null
0000000000ef9a50 D _ff_vf_oscilloscope
0000000000efcbd0 D _ff_vf_overlay
0000000000efcc50 D _ff_vf_owdenoise
0000000000efccd0 D _ff_vf_pad
0000000000efcd50 D _ff_vf_palettegen
0000000000efcdd0 D _ff_vf_paletteuse
0000000000ef7550 D _ff_vf_perms
0000000000efce50 D _ff_vf_perspective
0000000000efced0 D _ff_vf_phase
0000000000efcf50 D _ff_vf_photosensitivity
0000000000efcfd0 D _ff_vf_pixdesctest
0000000000ef99d0 D _ff_vf_pixscope
0000000000efd050 D _ff_vf_pp7
0000000000efd0d0 D _ff_vf_premultiply
0000000000ef93d0 D _ff_vf_prewitt
0000000000efd1d0 D _ff_vf_pseudocolor
0000000000efd250 D _ff_vf_psnr
0000000000efd2d0 D _ff_vf_pullup
0000000000efd350 D _ff_vf_qp
0000000000efd3d0 D _ff_vf_random
0000000000efd450 D _ff_vf_readeia608
0000000000efd4d0 D _ff_vf_readvitc
0000000000ef75d0 D _ff_vf_realtime
0000000000efd550 D _ff_vf_remap
0000000000efd5d0 D _ff_vf_removegrain
0000000000efd650 D _ff_vf_removelogo
0000000000efd6d0 D _ff_vf_repeatfields
0000000000ef76d0 D _ff_vf_reverse
0000000000ef8d50 D _ff_vf_rgbashift
0000000000ef94d0 D _ff_vf_roberts
0000000000efd750 D _ff_vf_rotate
0000000000efd7d0 D _ff_vf_sab
0000000000efd850 D _ff_vf_scale
0000000000efd8d0 D _ff_vf_scale2ref
0000000000efd950 D _ff_vf_scdet
0000000000efd9d0 D _ff_vf_scroll
0000000000ef7850 D _ff_vf_select
0000000000efda50 D _ff_vf_selectivecolor
0000000000ef78d0 D _ff_vf_sendcmd
0000000000efdad0 D _ff_vf_separatefields
0000000000ef83d0 D _ff_vf_setdar
0000000000efdc50 D _ff_vf_setfield
0000000000efdb50 D _ff_vf_setparams
0000000000ef7cd0 D _ff_vf_setpts
0000000000efdbd0 D _ff_vf_setrange
0000000000ef8450 D _ff_vf_setsar
0000000000ef7dd0 D _ff_vf_settb
0000000000efdcd0 D _ff_vf_shear
0000000000efdd50 D _ff_vf_showinfo
0000000000efddd0 D _ff_vf_showpalette
0000000000efde50 D _ff_vf_shuffleframes
0000000000efded0 D _ff_vf_shufflepixels
0000000000efdf50 D _ff_vf_shuffleplanes
0000000000ef7a50 D _ff_vf_sidedata
0000000000efdfd0 D _ff_vf_signalstats
0000000000efe050 D _ff_vf_signature
0000000000efe0d0 D _ff_vf_smartblur
0000000000ef9450 D _ff_vf_sobel
0000000000ef7ed0 D _ff_vf_split
0000000000efe150 D _ff_vf_spp
0000000000efe1d0 D _ff_vf_sr
0000000000efe250 D _ff_vf_ssim
0000000000efe450 D _ff_vf_stereo3d
0000000000ef7ad0 D _ff_vf_streamselect
0000000000efe4d0 D _ff_vf_super2xsai
0000000000efe550 D _ff_vf_swaprect
0000000000efe5d0 D _ff_vf_swapuv
0000000000ef88d0 D _ff_vf_tblend
0000000000efe650 D _ff_vf_telecine
0000000000efb3d0 D _ff_vf_thistogram
0000000000efe6d0 D _ff_vf_threshold
0000000000efe750 D _ff_vf_thumbnail
0000000000efe7d0 D _ff_vf_tile
0000000000efe850 D _ff_vf_tinterlace
0000000000efbdd0 D _ff_vf_tlut2
0000000000eff450 D _ff_vf_tmedian
0000000000efe950 D _ff_vf_tmidequalizer
0000000000efc650 D _ff_vf_tmix
0000000000efe9d0 D _ff_vf_tonemap
0000000000efea50 D _ff_vf_tpad
0000000000efead0 D _ff_vf_transpose
0000000000ef80d0 D _ff_vf_trim
0000000000efd150 D _ff_vf_unpremultiply
0000000000efeb50 D _ff_vf_unsharp
0000000000efebd0 D _ff_vf_untile
0000000000efec50 D _ff_vf_uspp
0000000000efecd0 D _ff_vf_v360
0000000000efed50 D _ff_vf_vaguedenoiser
0000000000efedd0 D _ff_vf_vectorscope
0000000000efee50 D _ff_vf_vflip
0000000000efeed0 D _ff_vf_vfrdet
0000000000efef50 D _ff_vf_vibrance
0000000000efefd0 D _ff_vf_vignette
0000000000eff050 D _ff_vf_vmafmotion
0000000000efe350 D _ff_vf_vstack
0000000000eff0d0 D _ff_vf_w3fdif
0000000000eff150 D _ff_vf_waveform
0000000000eff1d0 D _ff_vf_weave
0000000000eff2d0 D _ff_vf_xbr
0000000000eff350 D _ff_vf_xfade
0000000000eff3d0 D _ff_vf_xmedian
0000000000efe3d0 D _ff_vf_xstack
0000000000eff4d0 D _ff_vf_yadif
0000000000eff550 D _ff_vf_yaepblur
0000000000eff5d0 D _ff_vf_zoompan
0000000000ccd34c S _ff_video_guids
00000000009f837c T _ff_videodsp_init
00000000009c0fd0 T _ff_videodsp_init_aarch64
0000000000f39de8 D _ff_vividas_demuxer
0000000000f39e90 D _ff_vivo_demuxer
000000000032c108 T _ff_vmafmotion_init
000000000032c048 T _ff_vmafmotion_process
000000000032c1fc T _ff_vmafmotion_uninit
0000000000f38098 D _ff_vmd_demuxer
0000000000f22970 D _ff_vmdaudio_decoder
0000000000f22a60 D _ff_vmdvideo_decoder
0000000000f22b50 D _ff_vmnc_decoder
0000000000f30ad8 D _ff_vobsub_demuxer
0000000000ccd030 S _ff_voc_codec_tags
0000000000f39f38 D _ff_voc_demuxer
00000000008466bc T _ff_voc_get_packet
0000000000ccd018 S _ff_voc_magic
0000000000f39fe0 D _ff_voc_muxer
0000000000c93ef0 S _ff_vorbis_channel_layout_offsets
0000000000c93f70 S _ff_vorbis_channel_layouts
0000000000ec53f8 S _ff_vorbis_codec
00000000007f88ec T _ff_vorbis_comment
0000000000f22c80 D _ff_vorbis_decoder
0000000000ec96a8 S _ff_vorbis_dynamic_handler
0000000000f22d70 D _ff_vorbis_encoder
0000000000c93f30 S _ff_vorbis_encoding_channel_layout_offsets
0000000000c93fb8 S _ff_vorbis_floor1_inverse_db_table
0000000000694c98 T _ff_vorbis_floor1_render_list
0000000000695540 T _ff_vorbis_inverse_coupling
0000000000382b34 T _ff_vorbis_inverse_coupling_neon
0000000000694978 T _ff_vorbis_len2vlc
0000000000694940 T _ff_vorbis_nth_root
0000000000f22c40 D _ff_vorbis_parser
0000000000694b2c T _ff_vorbis_ready_floor1_list
00000000007f88b4 T _ff_vorbis_stream_comment
0000000000eb1098 S _ff_vorbis_vwin
0000000000846f10 T _ff_vorbiscomment_length
0000000000ecd958 S _ff_vorbiscomment_metadata_conv
0000000000847040 T _ff_vorbiscomment_write
00000000009f8928 T _ff_vorbisdsp_init
00000000009c0ffc T _ff_vorbisdsp_init_aarch64
0000000000f22f50 D _ff_vp3_decoder
0000000000f23130 D _ff_vp3_parser
000000000069fe80 T _ff_vp3dsp_h_loop_filter_12
000000000069fb2c T _ff_vp3dsp_idct10_add
000000000069f820 T _ff_vp3dsp_idct10_put
00000000009faa9c T _ff_vp3dsp_init
00000000006a0948 T _ff_vp3dsp_set_bounding_values
000000000069fe2c T _ff_vp3dsp_v_loop_filter_12
0000000000f23040 D _ff_vp4_decoder
0000000000ca21b4 S _ff_vp56_ac_dequant
0000000000ca20b8 S _ff_vp56_b2p
0000000000ca20c2 S _ff_vp56_b6to4
0000000000ca267a S _ff_vp56_candidate_predictor_pos
0000000000ca217a S _ff_vp56_coeff_bias
0000000000ca2185 S _ff_vp56_coeff_bit_length
0000000000ca20c8 S _ff_vp56_coeff_parse_table
0000000000ca21f4 S _ff_vp56_dc_dequant
00000000006a2238 T _ff_vp56_decode_frame
0000000000ca210a S _ff_vp56_def_mb_types_stats
0000000000ca25f4 S _ff_vp56_filter_threshold
00000000009facc4 T _ff_vp56_free
00000000009facdc T _ff_vp56_free_context
00000000009fab68 T _ff_vp56_init
00000000009fab7c T _ff_vp56_init_context
00000000006a21b8 T _ff_vp56_init_dequant
00000000006a3ec4 T _ff_vp56_init_range_decoder
0000000000ca2634 S _ff_vp56_mb_type_model_model
0000000000ca26a0 S _ff_vp56_norm_shift
0000000000ca2164 S _ff_vp56_pc_tree
0000000000ca2654 S _ff_vp56_pmbt_tree
0000000000ca263a S _ff_vp56_pmbtm_tree
0000000000ca2234 S _ff_vp56_pre_def_mb_type_stats
0000000000ca2146 S _ff_vp56_pva_tree
0000000000ca218c S _ff_vp56_reference_frame
0000000000f23170 D _ff_vp5_decoder
00000000009fad30 T _ff_vp5dsp_init
0000000000f23260 D _ff_vp6_decoder
00000000006a6474 T _ff_vp6_filter_diag4_c
0000000000f23440 D _ff_vp6a_decoder
00000000009fad48 T _ff_vp6dsp_init
0000000000f23350 D _ff_vp6f_decoder
00000000009fb058 T _ff_vp78dsp_init
00000000009c1028 T _ff_vp78dsp_init_aarch64
0000000000f23530 D _ff_vp7_decoder
00000000009fb1f4 T _ff_vp7dsp_init
0000000000ec5438 S _ff_vp8_codec
0000000000eb17a0 S _ff_vp8_dct_cat_prob
00000000006a65c8 T _ff_vp8_decode_frame
00000000009faf4c T _ff_vp8_decode_free
00000000009faf90 T _ff_vp8_decode_init
0000000000f23620 D _ff_vp8_decoder
0000000000ec95d0 S _ff_vp8_dynamic_handler
0000000000383970 T _ff_vp8_h_loop_filter16_inner_neon
00000000003836c8 T _ff_vp8_h_loop_filter16_neon
0000000000383bb8 T _ff_vp8_h_loop_filter16_simple_neon
0000000000384040 T _ff_vp8_h_loop_filter8uv_inner_neon
0000000000383d90 T _ff_vp8_h_loop_filter8uv_neon
0000000000382cdc T _ff_vp8_idct_add_neon
0000000000382e10 T _ff_vp8_idct_dc_add4uv_neon
0000000000382ed0 T _ff_vp8_idct_dc_add4y_neon
0000000000382f70 T _ff_vp8_idct_dc_add_neon
0000000000382c0c T _ff_vp8_luma_dc_wht_neon
0000000000f23710 D _ff_vp8_parser
000000000038315c T _ff_vp8_v_loop_filter16_inner_neon
0000000000382fb8 T _ff_vp8_v_loop_filter16_neon
00000000003832a0 T _ff_vp8_v_loop_filter16_simple_neon
0000000000383540 T _ff_vp8_v_loop_filter8uv_inner_neon
0000000000383358 T _ff_vp8_v_loop_filter8uv_neon
00000000009fb298 T _ff_vp8dsp_init
00000000009c11a8 T _ff_vp8dsp_init_aarch64
0000000000ca53b0 S _ff_vp9_ac_qlookup
00000000006f467c T _ff_vp9_adapt_probs
0000000000399740 T _ff_vp9_avg16_16_neon
000000000039bb50 T _ff_vp9_avg16_neon
00000000003996f8 T _ff_vp9_avg32_16_neon
000000000039baf4 T _ff_vp9_avg32_neon
0000000000399790 T _ff_vp9_avg4_16_neon
000000000039bbf8 T _ff_vp9_avg4_neon
00000000003996a8 T _ff_vp9_avg64_16_neon
000000000039baac T _ff_vp9_avg64_neon
0000000000399760 T _ff_vp9_avg8_16_neon
000000000039bb9c T _ff_vp9_avg8_neon
000000000039a144 T _ff_vp9_avg_regular16_h_10_neon
000000000039a48c T _ff_vp9_avg_regular16_h_12_neon
000000000039cb8c T _ff_vp9_avg_regular16_h_neon
000000000039b4dc T _ff_vp9_avg_regular16_v_10_neon
000000000039b824 T _ff_vp9_avg_regular16_v_12_neon
000000000039e1e8 T _ff_vp9_avg_regular16_v_neon
000000000039a09c T _ff_vp9_avg_regular32_h_10_neon
000000000039a3e4 T _ff_vp9_avg_regular32_h_12_neon
000000000039cae4 T _ff_vp9_avg_regular32_h_neon
000000000039b434 T _ff_vp9_avg_regular32_v_10_neon
000000000039b77c T _ff_vp9_avg_regular32_v_12_neon
000000000039e128 T _ff_vp9_avg_regular32_v_neon
000000000039a294 T _ff_vp9_avg_regular4_h_10_neon
000000000039a5dc T _ff_vp9_avg_regular4_h_12_neon
000000000039ccdc T _ff_vp9_avg_regular4_h_neon
000000000039b62c T _ff_vp9_avg_regular4_v_10_neon
000000000039b974 T _ff_vp9_avg_regular4_v_12_neon
000000000039e368 T _ff_vp9_avg_regular4_v_neon
0000000000399ff4 T _ff_vp9_avg_regular64_h_10_neon
000000000039a33c T _ff_vp9_avg_regular64_h_12_neon
000000000039ca3c T _ff_vp9_avg_regular64_h_neon
000000000039b38c T _ff_vp9_avg_regular64_v_10_neon
000000000039b6d4 T _ff_vp9_avg_regular64_v_12_neon
000000000039e068 T _ff_vp9_avg_regular64_v_neon
000000000039a1ec T _ff_vp9_avg_regular8_h_10_neon
000000000039a534 T _ff_vp9_avg_regular8_h_12_neon
000000000039cc34 T _ff_vp9_avg_regular8_h_neon
000000000039b584 T _ff_vp9_avg_regular8_v_10_neon
000000000039b8cc T _ff_vp9_avg_regular8_v_12_neon
000000000039e2a8 T _ff_vp9_avg_regular8_v_neon
000000000039a17c T _ff_vp9_avg_sharp16_h_10_neon
000000000039a4c4 T _ff_vp9_avg_sharp16_h_12_neon
000000000039cbc4 T _ff_vp9_avg_sharp16_h_neon
000000000039b514 T _ff_vp9_avg_sharp16_v_10_neon
000000000039b85c T _ff_vp9_avg_sharp16_v_12_neon
000000000039e228 T _ff_vp9_avg_sharp16_v_neon
000000000039a0d4 T _ff_vp9_avg_sharp32_h_10_neon
000000000039a41c T _ff_vp9_avg_sharp32_h_12_neon
000000000039cb1c T _ff_vp9_avg_sharp32_h_neon
000000000039b46c T _ff_vp9_avg_sharp32_v_10_neon
000000000039b7b4 T _ff_vp9_avg_sharp32_v_12_neon
000000000039e168 T _ff_vp9_avg_sharp32_v_neon
000000000039a2cc T _ff_vp9_avg_sharp4_h_10_neon
000000000039a614 T _ff_vp9_avg_sharp4_h_12_neon
000000000039cd14 T _ff_vp9_avg_sharp4_h_neon
000000000039b664 T _ff_vp9_avg_sharp4_v_10_neon
000000000039b9ac T _ff_vp9_avg_sharp4_v_12_neon
000000000039e3a8 T _ff_vp9_avg_sharp4_v_neon
000000000039a02c T _ff_vp9_avg_sharp64_h_10_neon
000000000039a374 T _ff_vp9_avg_sharp64_h_12_neon
000000000039ca74 T _ff_vp9_avg_sharp64_h_neon
000000000039b3c4 T _ff_vp9_avg_sharp64_v_10_neon
000000000039b70c T _ff_vp9_avg_sharp64_v_12_neon
000000000039e0a8 T _ff_vp9_avg_sharp64_v_neon
000000000039a224 T _ff_vp9_avg_sharp8_h_10_neon
000000000039a56c T _ff_vp9_avg_sharp8_h_12_neon
000000000039cc6c T _ff_vp9_avg_sharp8_h_neon
000000000039b5bc T _ff_vp9_avg_sharp8_v_10_neon
000000000039b904 T _ff_vp9_avg_sharp8_v_12_neon
000000000039e2e8 T _ff_vp9_avg_sharp8_v_neon
000000000039a1b4 T _ff_vp9_avg_smooth16_h_10_neon
000000000039a4fc T _ff_vp9_avg_smooth16_h_12_neon
000000000039cbfc T _ff_vp9_avg_smooth16_h_neon
000000000039b54c T _ff_vp9_avg_smooth16_v_10_neon
000000000039b894 T _ff_vp9_avg_smooth16_v_12_neon
000000000039e268 T _ff_vp9_avg_smooth16_v_neon
000000000039a10c T _ff_vp9_avg_smooth32_h_10_neon
000000000039a454 T _ff_vp9_avg_smooth32_h_12_neon
000000000039cb54 T _ff_vp9_avg_smooth32_h_neon
000000000039b4a4 T _ff_vp9_avg_smooth32_v_10_neon
000000000039b7ec T _ff_vp9_avg_smooth32_v_12_neon
000000000039e1a8 T _ff_vp9_avg_smooth32_v_neon
000000000039a304 T _ff_vp9_avg_smooth4_h_10_neon
000000000039a64c T _ff_vp9_avg_smooth4_h_12_neon
000000000039cd4c T _ff_vp9_avg_smooth4_h_neon
000000000039b69c T _ff_vp9_avg_smooth4_v_10_neon
000000000039b9e4 T _ff_vp9_avg_smooth4_v_12_neon
000000000039e3e8 T _ff_vp9_avg_smooth4_v_neon
000000000039a064 T _ff_vp9_avg_smooth64_h_10_neon
000000000039a3ac T _ff_vp9_avg_smooth64_h_12_neon
000000000039caac T _ff_vp9_avg_smooth64_h_neon
000000000039b3fc T _ff_vp9_avg_smooth64_v_10_neon
000000000039b744 T _ff_vp9_avg_smooth64_v_12_neon
000000000039e0e8 T _ff_vp9_avg_smooth64_v_neon
000000000039a25c T _ff_vp9_avg_smooth8_h_10_neon
000000000039a5a4 T _ff_vp9_avg_smooth8_h_12_neon
000000000039cca4 T _ff_vp9_avg_smooth8_h_neon
000000000039b5f4 T _ff_vp9_avg_smooth8_v_10_neon
000000000039b93c T _ff_vp9_avg_smooth8_v_12_neon
000000000039e328 T _ff_vp9_avg_smooth8_v_neon
0000000000ca4930 S _ff_vp9_bwh_tab
0000000000ca5dc8 S _ff_vp9_col_scan_16x16
0000000000ca7188 S _ff_vp9_col_scan_16x16_nb
0000000000ca5a08 S _ff_vp9_col_scan_4x4
0000000000ca6a08 S _ff_vp9_col_scan_4x4_nb
0000000000ca5ac8 S _ff_vp9_col_scan_8x8
0000000000ca6b88 S _ff_vp9_col_scan_8x8_nb
000000000039ba00 T _ff_vp9_copy128_aarch64
000000000039bb14 T _ff_vp9_copy16_neon
000000000039ba88 T _ff_vp9_copy32_aarch64
000000000039bbcc T _ff_vp9_copy4_neon
000000000039ba54 T _ff_vp9_copy64_aarch64
000000000039bb80 T _ff_vp9_copy8_neon
0000000000ca4db0 S _ff_vp9_dc_qlookup
00000000006c6b70 T _ff_vp9_decode_block
0000000000f23750 D _ff_vp9_decoder
0000000000ca92bf S _ff_vp9_default_coef_probs
0000000000ca496a S _ff_vp9_default_kf_partition_probs
0000000000ca4d3e S _ff_vp9_default_kf_uvmode_probs
0000000000ca49ba S _ff_vp9_default_kf_ymode_probs
0000000000ca9188 S _ff_vp9_default_probs
0000000000ca5bc8 S _ff_vp9_default_scan_16x16
0000000000ca6d88 S _ff_vp9_default_scan_16x16_nb
0000000000ca61c8 S _ff_vp9_default_scan_32x32
0000000000ca7988 S _ff_vp9_default_scan_32x32_nb
0000000000ca59e8 S _ff_vp9_default_scan_4x4
0000000000ca69c8 S _ff_vp9_default_scan_4x4_nb
0000000000ca5a48 S _ff_vp9_default_scan_8x8
0000000000ca6a88 S _ff_vp9_default_scan_8x8_nb
0000000000ec9618 S _ff_vp9_dynamic_handler
00000000006f1cf8 T _ff_vp9_fill_mv
0000000000ca4da4 S _ff_vp9_filter_lut
0000000000ca4d9e S _ff_vp9_filter_tree
000000000038c9a8 T _ff_vp9_iadst_iadst_16x16_add_10_neon
000000000038c9b0 T _ff_vp9_iadst_iadst_16x16_add_12_neon
0000000000392a68 T _ff_vp9_iadst_iadst_16x16_add_neon
00000000003885ec T _ff_vp9_iadst_iadst_4x4_add_10_neon
0000000000388ce0 T _ff_vp9_iadst_iadst_4x4_add_12_neon
0000000000390078 T _ff_vp9_iadst_iadst_4x4_add_neon
000000000038b0d8 T _ff_vp9_iadst_iadst_8x8_add_10_neon
000000000038b0e0 T _ff_vp9_iadst_iadst_8x8_add_12_neon
0000000000390eb8 T _ff_vp9_iadst_iadst_8x8_add_neon
000000000038c7b4 T _ff_vp9_iadst_idct_16x16_add_10_neon
000000000038c7bc T _ff_vp9_iadst_idct_16x16_add_12_neon
0000000000392930 T _ff_vp9_iadst_idct_16x16_add_neon
0000000000388384 T _ff_vp9_iadst_idct_4x4_add_10_neon
00000000003889a8 T _ff_vp9_iadst_idct_4x4_add_12_neon
000000000038fe40 T _ff_vp9_iadst_idct_4x4_add_neon
0000000000389eb8 T _ff_vp9_iadst_idct_8x8_add_10_neon
0000000000389ec0 T _ff_vp9_iadst_idct_8x8_add_12_neon
0000000000390620 T _ff_vp9_iadst_idct_8x8_add_neon
000000000038c8b8 T _ff_vp9_idct_iadst_16x16_add_10_neon
000000000038c8c0 T _ff_vp9_idct_iadst_16x16_add_12_neon
00000000003929cc T _ff_vp9_idct_iadst_16x16_add_neon
00000000003884b8 T _ff_vp9_idct_iadst_4x4_add_10_neon
0000000000388b44 T _ff_vp9_idct_iadst_4x4_add_12_neon
000000000038ff5c T _ff_vp9_idct_iadst_4x4_add_neon
000000000038a6f8 T _ff_vp9_idct_iadst_8x8_add_10_neon
000000000038a700 T _ff_vp9_idct_iadst_8x8_add_12_neon
0000000000390a6c T _ff_vp9_idct_iadst_8x8_add_neon
000000000038c6b0 T _ff_vp9_idct_idct_16x16_add_10_neon
000000000038c6b8 T _ff_vp9_idct_idct_16x16_add_12_neon
0000000000392854 T _ff_vp9_idct_idct_16x16_add_neon
000000000038faf8 T _ff_vp9_idct_idct_32x32_add_10_neon
000000000038fb00 T _ff_vp9_idct_idct_32x32_add_12_neon
00000000003959e4 T _ff_vp9_idct_idct_32x32_add_neon
0000000000388228 T _ff_vp9_idct_idct_4x4_add_10_neon
00000000003887fc T _ff_vp9_idct_idct_4x4_add_12_neon
000000000038fcf8 T _ff_vp9_idct_idct_4x4_add_neon
0000000000389678 T _ff_vp9_idct_idct_8x8_add_10_neon
0000000000389680 T _ff_vp9_idct_idct_8x8_add_12_neon
0000000000390264 T _ff_vp9_idct_idct_8x8_add_neon
0000000000ca4d98 S _ff_vp9_inter_mode_tree
00000000006f8018 T _ff_vp9_inter_recon_16bpp
00000000006f7d28 T _ff_vp9_inter_recon_8bpp
00000000006f6f1c T _ff_vp9_intra_recon_16bpp
00000000006f62bc T _ff_vp9_intra_recon_8bpp
0000000000ca59b0 S _ff_vp9_intra_txfm_type
0000000000ca49a8 S _ff_vp9_intramode_tree
0000000000388724 T _ff_vp9_iwht_iwht_4x4_add_10_neon
0000000000388e98 T _ff_vp9_iwht_iwht_4x4_add_12_neon
000000000039019c T _ff_vp9_iwht_iwht_4x4_add_neon
0000000000397198 T _ff_vp9_loop_filter_h_16_16_10_neon
00000000003971e4 T _ff_vp9_loop_filter_h_16_16_12_neon
00000000003992d0 T _ff_vp9_loop_filter_h_16_16_neon
0000000000397110 T _ff_vp9_loop_filter_h_16_8_10_neon
0000000000397154 T _ff_vp9_loop_filter_h_16_8_12_neon
0000000000398fb8 T _ff_vp9_loop_filter_h_16_8_neon
000000000039679c T _ff_vp9_loop_filter_h_44_16_10_neon
00000000003967ec T _ff_vp9_loop_filter_h_44_16_12_neon
0000000000398404 T _ff_vp9_loop_filter_h_44_16_neon
00000000003968dc T _ff_vp9_loop_filter_h_48_16_10_neon
000000000039692c T _ff_vp9_loop_filter_h_48_16_12_neon
0000000000398860 T _ff_vp9_loop_filter_h_48_16_neon
0000000000396454 T _ff_vp9_loop_filter_h_4_8_10_neon
0000000000396470 T _ff_vp9_loop_filter_h_4_8_12_neon
0000000000398320 T _ff_vp9_loop_filter_h_4_8_neon
0000000000396a1c T _ff_vp9_loop_filter_h_84_16_10_neon
0000000000396a6c T _ff_vp9_loop_filter_h_84_16_12_neon
0000000000398a30 T _ff_vp9_loop_filter_h_84_16_neon
0000000000396b5c T _ff_vp9_loop_filter_h_88_16_10_neon
0000000000396bac T _ff_vp9_loop_filter_h_88_16_12_neon
0000000000398c00 T _ff_vp9_loop_filter_h_88_16_neon
00000000003966c4 T _ff_vp9_loop_filter_h_8_8_10_neon
00000000003966e0 T _ff_vp9_loop_filter_h_8_8_12_neon
00000000003986f4 T _ff_vp9_loop_filter_h_8_8_neon
0000000000396d6c T _ff_vp9_loop_filter_v_16_16_10_neon
0000000000396db8 T _ff_vp9_loop_filter_v_16_16_12_neon
0000000000398ec4 T _ff_vp9_loop_filter_v_16_16_neon
0000000000396ce4 T _ff_vp9_loop_filter_v_16_8_10_neon
0000000000396d28 T _ff_vp9_loop_filter_v_16_8_12_neon
0000000000398dd0 T _ff_vp9_loop_filter_v_16_8_neon
00000000003966fc T _ff_vp9_loop_filter_v_44_16_10_neon
000000000039674c T _ff_vp9_loop_filter_v_44_16_12_neon
00000000003982d8 T _ff_vp9_loop_filter_v_44_16_neon
000000000039683c T _ff_vp9_loop_filter_v_48_16_10_neon
000000000039688c T _ff_vp9_loop_filter_v_48_16_12_neon
0000000000398598 T _ff_vp9_loop_filter_v_48_16_neon
000000000039632c T _ff_vp9_loop_filter_v_4_8_10_neon
0000000000396348 T _ff_vp9_loop_filter_v_4_8_12_neon
0000000000398290 T _ff_vp9_loop_filter_v_4_8_neon
000000000039697c T _ff_vp9_loop_filter_v_84_16_10_neon
00000000003969cc T _ff_vp9_loop_filter_v_84_16_12_neon
000000000039860c T _ff_vp9_loop_filter_v_84_16_neon
0000000000396abc T _ff_vp9_loop_filter_v_88_16_10_neon
0000000000396b0c T _ff_vp9_loop_filter_v_88_16_12_neon
0000000000398680 T _ff_vp9_loop_filter_v_88_16_neon
0000000000396508 T _ff_vp9_loop_filter_v_8_8_10_neon
0000000000396524 T _ff_vp9_loop_filter_v_8_8_12_neon
0000000000398528 T _ff_vp9_loop_filter_v_8_8_neon
00000000006f11dc T _ff_vp9_loopfilter_sb
0000000000eb1838 S _ff_vp9_metadata_bsf
0000000000ca8988 S _ff_vp9_model_pareto8
0000000000ca9985 S _ff_vp9_mv_class_tree
0000000000ca9999 S _ff_vp9_mv_fp_tree
0000000000ca997f S _ff_vp9_mv_joint_tree
0000000000f23840 D _ff_vp9_parser
0000000000ca4964 S _ff_vp9_partition_tree
000000000039a128 T _ff_vp9_put_regular16_h_10_neon
000000000039a470 T _ff_vp9_put_regular16_h_12_neon
000000000039cb70 T _ff_vp9_put_regular16_h_neon
000000000039b4c0 T _ff_vp9_put_regular16_v_10_neon
000000000039b808 T _ff_vp9_put_regular16_v_12_neon
000000000039e1c8 T _ff_vp9_put_regular16_v_neon
000000000039a080 T _ff_vp9_put_regular32_h_10_neon
000000000039a3c8 T _ff_vp9_put_regular32_h_12_neon
000000000039cac8 T _ff_vp9_put_regular32_h_neon
000000000039b418 T _ff_vp9_put_regular32_v_10_neon
000000000039b760 T _ff_vp9_put_regular32_v_12_neon
000000000039e108 T _ff_vp9_put_regular32_v_neon
000000000039a278 T _ff_vp9_put_regular4_h_10_neon
000000000039a5c0 T _ff_vp9_put_regular4_h_12_neon
000000000039ccc0 T _ff_vp9_put_regular4_h_neon
000000000039b610 T _ff_vp9_put_regular4_v_10_neon
000000000039b958 T _ff_vp9_put_regular4_v_12_neon
000000000039e348 T _ff_vp9_put_regular4_v_neon
0000000000399fd8 T _ff_vp9_put_regular64_h_10_neon
000000000039a320 T _ff_vp9_put_regular64_h_12_neon
000000000039ca20 T _ff_vp9_put_regular64_h_neon
000000000039b370 T _ff_vp9_put_regular64_v_10_neon
000000000039b6b8 T _ff_vp9_put_regular64_v_12_neon
000000000039e048 T _ff_vp9_put_regular64_v_neon
000000000039a1d0 T _ff_vp9_put_regular8_h_10_neon
000000000039a518 T _ff_vp9_put_regular8_h_12_neon
000000000039cc18 T _ff_vp9_put_regular8_h_neon
000000000039b568 T _ff_vp9_put_regular8_v_10_neon
000000000039b8b0 T _ff_vp9_put_regular8_v_12_neon
000000000039e288 T _ff_vp9_put_regular8_v_neon
000000000039a160 T _ff_vp9_put_sharp16_h_10_neon
000000000039a4a8 T _ff_vp9_put_sharp16_h_12_neon
000000000039cba8 T _ff_vp9_put_sharp16_h_neon
000000000039b4f8 T _ff_vp9_put_sharp16_v_10_neon
000000000039b840 T _ff_vp9_put_sharp16_v_12_neon
000000000039e208 T _ff_vp9_put_sharp16_v_neon
000000000039a0b8 T _ff_vp9_put_sharp32_h_10_neon
000000000039a400 T _ff_vp9_put_sharp32_h_12_neon
000000000039cb00 T _ff_vp9_put_sharp32_h_neon
000000000039b450 T _ff_vp9_put_sharp32_v_10_neon
000000000039b798 T _ff_vp9_put_sharp32_v_12_neon
000000000039e148 T _ff_vp9_put_sharp32_v_neon
000000000039a2b0 T _ff_vp9_put_sharp4_h_10_neon
000000000039a5f8 T _ff_vp9_put_sharp4_h_12_neon
000000000039ccf8 T _ff_vp9_put_sharp4_h_neon
000000000039b648 T _ff_vp9_put_sharp4_v_10_neon
000000000039b990 T _ff_vp9_put_sharp4_v_12_neon
000000000039e388 T _ff_vp9_put_sharp4_v_neon
000000000039a010 T _ff_vp9_put_sharp64_h_10_neon
000000000039a358 T _ff_vp9_put_sharp64_h_12_neon
000000000039ca58 T _ff_vp9_put_sharp64_h_neon
000000000039b3a8 T _ff_vp9_put_sharp64_v_10_neon
000000000039b6f0 T _ff_vp9_put_sharp64_v_12_neon
000000000039e088 T _ff_vp9_put_sharp64_v_neon
000000000039a208 T _ff_vp9_put_sharp8_h_10_neon
000000000039a550 T _ff_vp9_put_sharp8_h_12_neon
000000000039cc50 T _ff_vp9_put_sharp8_h_neon
000000000039b5a0 T _ff_vp9_put_sharp8_v_10_neon
000000000039b8e8 T _ff_vp9_put_sharp8_v_12_neon
000000000039e2c8 T _ff_vp9_put_sharp8_v_neon
000000000039a198 T _ff_vp9_put_smooth16_h_10_neon
000000000039a4e0 T _ff_vp9_put_smooth16_h_12_neon
000000000039cbe0 T _ff_vp9_put_smooth16_h_neon
000000000039b530 T _ff_vp9_put_smooth16_v_10_neon
000000000039b878 T _ff_vp9_put_smooth16_v_12_neon
000000000039e248 T _ff_vp9_put_smooth16_v_neon
000000000039a0f0 T _ff_vp9_put_smooth32_h_10_neon
000000000039a438 T _ff_vp9_put_smooth32_h_12_neon
000000000039cb38 T _ff_vp9_put_smooth32_h_neon
000000000039b488 T _ff_vp9_put_smooth32_v_10_neon
000000000039b7d0 T _ff_vp9_put_smooth32_v_12_neon
000000000039e188 T _ff_vp9_put_smooth32_v_neon
000000000039a2e8 T _ff_vp9_put_smooth4_h_10_neon
000000000039a630 T _ff_vp9_put_smooth4_h_12_neon
000000000039cd30 T _ff_vp9_put_smooth4_h_neon
000000000039b680 T _ff_vp9_put_smooth4_v_10_neon
000000000039b9c8 T _ff_vp9_put_smooth4_v_12_neon
000000000039e3c8 T _ff_vp9_put_smooth4_v_neon
000000000039a048 T _ff_vp9_put_smooth64_h_10_neon
000000000039a390 T _ff_vp9_put_smooth64_h_12_neon
000000000039ca90 T _ff_vp9_put_smooth64_h_neon
000000000039b3e0 T _ff_vp9_put_smooth64_v_10_neon
000000000039b728 T _ff_vp9_put_smooth64_v_12_neon
000000000039e0c8 T _ff_vp9_put_smooth64_v_neon
000000000039a240 T _ff_vp9_put_smooth8_h_10_neon
000000000039a588 T _ff_vp9_put_smooth8_h_12_neon
000000000039cc88 T _ff_vp9_put_smooth8_h_neon
000000000039b5d8 T _ff_vp9_put_smooth8_v_10_neon
000000000039b920 T _ff_vp9_put_smooth8_v_12_neon
000000000039e308 T _ff_vp9_put_smooth8_v_neon
0000000000eb1b98 S _ff_vp9_raw_reorder_bsf
0000000000ca5fc8 S _ff_vp9_row_scan_16x16
0000000000ca7588 S _ff_vp9_row_scan_16x16_nb
0000000000ca5a28 S _ff_vp9_row_scan_4x4
0000000000ca6a48 S _ff_vp9_row_scan_4x4_nb
0000000000ca5b48 S _ff_vp9_row_scan_8x8
0000000000ca6c88 S _ff_vp9_row_scan_8x8_nb
0000000000eb1c58 S _ff_vp9_scans
0000000000eb1cf8 S _ff_vp9_scans_nb
0000000000ca499a S _ff_vp9_segmentation_tree
0000000000ca99a0 S _ff_vp9_subpel_filters
0000000000eb1bd8 S _ff_vp9_superframe_bsf
0000000000eb1c18 S _ff_vp9_superframe_split_bsf
00000000009fb4d0 T _ff_vp9dsp_init
00000000009fc03c T _ff_vp9dsp_init_10
00000000009c1260 T _ff_vp9dsp_init_10bpp_aarch64
00000000009fc1dc T _ff_vp9dsp_init_12
00000000009c1934 T _ff_vp9dsp_init_12bpp_aarch64
00000000009fc9cc T _ff_vp9dsp_init_8
00000000009c2008 T _ff_vp9dsp_init_aarch64
00000000009fb568 T _ff_vp9dsp_intrapred_init_10
00000000009fb7c4 T _ff_vp9dsp_mc_init_10
00000000009fbe58 T _ff_vp9dsp_scaled_mc_init_10
0000000000f3a0a8 D _ff_vpk_demuxer
0000000000f20350 D _ff_vplayer_decoder
0000000000f3a150 D _ff_vplayer_demuxer
0000000000f23880 D _ff_vqa_decoder
0000000000f3a1f8 D _ff_vqf_demuxer
0000000000ef6b40 D _ff_vsink_buffer
0000000000eff650 D _ff_vsink_nullsink
0000000000efffd0 D _ff_vsrc_allrgb
0000000000efff50 D _ff_vsrc_allyuv
0000000000ef6c40 D _ff_vsrc_buffer
0000000000eff6d0 D _ff_vsrc_cellauto
0000000000eff9d0 D _ff_vsrc_color
0000000000eff750 D _ff_vsrc_gradients
0000000000effa50 D _ff_vsrc_haldclutsrc
0000000000eff7d0 D _ff_vsrc_life
0000000000eff850 D _ff_vsrc_mandelbrot
0000000000eff8d0 D _ff_vsrc_mptestsrc
0000000000effad0 D _ff_vsrc_nullsrc
0000000000effdd0 D _ff_vsrc_pal100bars
0000000000effd50 D _ff_vsrc_pal75bars
0000000000effc50 D _ff_vsrc_rgbtestsrc
0000000000eff950 D _ff_vsrc_sierpinski
0000000000effe50 D _ff_vsrc_smptebars
0000000000effed0 D _ff_vsrc_smptehdbars
0000000000effb50 D _ff_vsrc_testsrc
0000000000effbd0 D _ff_vsrc_testsrc2
0000000000effcd0 D _ff_vsrc_yuvtestsrc
000000000063cb04 T _ff_w53_32_c
0000000000f3a348 D _ff_w64_demuxer
0000000000ccd0d8 S _ff_w64_guid_data
0000000000ccd0c8 S _ff_w64_guid_fact
0000000000ccd0b8 S _ff_w64_guid_fmt
0000000000ccd098 S _ff_w64_guid_riff
0000000000ccd0e8 S _ff_w64_guid_summarylist
0000000000ccd0a8 S _ff_w64_guid_wave
0000000000f3a4b8 D _ff_w64_muxer
000000000063cd24 T _ff_w97_32_c
0000000000b50730 S _ff_w_tab_sr
0000000000800cb8 T _ff_wav_codec_get_id
0000000000f3a2a0 D _ff_wav_demuxer
0000000000f3a3f0 D _ff_wav_muxer
0000000000f23970 D _ff_wavpack_decoder
0000000000f23a60 D _ff_wavpack_encoder
0000000000f3a580 D _ff_wc3_demuxer
0000000000f3a628 D _ff_webm_chunk_muxer
0000000000cc63d8 S _ff_webm_codec_tags
0000000000f2f350 D _ff_webm_dash_manifest_demuxer
0000000000f3a6f0 D _ff_webm_dash_manifest_muxer
0000000000f2f4c0 D _ff_webm_muxer
0000000000f23b50 D _ff_webp_decoder
0000000000f3a7b8 D _ff_webp_muxer
0000000000f23c40 D _ff_webp_parser
0000000000f23c80 D _ff_webvtt_decoder
0000000000f3a880 D _ff_webvtt_demuxer
0000000000f23d70 D _ff_webvtt_encoder
0000000000f3a928 D _ff_webvtt_muxer
000000000037d54c T _ff_weight_h264_pixels_16_neon
000000000037d854 T _ff_weight_h264_pixels_4_neon
000000000037d710 T _ff_weight_h264_pixels_8_neon
00000000003ac8e0 T _ff_weighted_vector_sumf
0000000000cb4fec S _ff_wma_critical_freqs
00000000007275fc T _ff_wma_end
00000000009fe57c T _ff_wma_get_frame_len_bits
00000000007276b4 T _ff_wma_get_large_val
0000000000caedd8 S _ff_wma_hgain_hufftab
00000000009fdca8 T _ff_wma_init
0000000000caee24 S _ff_wma_lsp_codebook
0000000000727764 T _ff_wma_run_level_decode
00000000007275bc T _ff_wma_total_gain_to_bits
0000000000f24220 D _ff_wmalossless_decoder
0000000000f24310 D _ff_wmapro_decoder
0000000000f23e60 D _ff_wmav1_decoder
0000000000f24040 D _ff_wmav1_encoder
0000000000f23f50 D _ff_wmav2_decoder
0000000000f24130 D _ff_wmav2_encoder
0000000000f245e0 D _ff_wmavoice_decoder
000000000080e84c T _ff_wms_parse_sdp_a_line
0000000000bf4142 S _ff_wmv1_c_dc_scale_table
0000000000f15080 D _ff_wmv1_decoder
0000000000f14310 D _ff_wmv1_encoder
0000000000bf4182 S _ff_wmv1_scantable
0000000000bf4122 S _ff_wmv1_y_dc_scale_table
0000000000731318 T _ff_wmv2_add_mb
0000000000a00180 T _ff_wmv2_common_init
0000000000732058 T _ff_wmv2_decode_mb
0000000000731830 T _ff_wmv2_decode_picture_header
0000000000731af0 T _ff_wmv2_decode_secondary_picture_header
0000000000f246e0 D _ff_wmv2_decoder
0000000000733598 T _ff_wmv2_encode_mb
00000000007332e0 T _ff_wmv2_encode_picture_header
0000000000f247d0 D _ff_wmv2_encoder
0000000000e9f9a8 S _ff_wmv2_inter_table
0000000000cc1878 S _ff_wmv2_scantableA
0000000000cc18b8 S _ff_wmv2_scantableB
0000000000a002dc T _ff_wmv2dsp_init
0000000000c92b90 S _ff_wmv3_dc_scale_table
0000000000f223d0 D _ff_wmv3_decoder
0000000000f224c0 D _ff_wmv3image_decoder
0000000000f248c0 D _ff_wnv1_decoder
0000000000ca9e30 S _ff_wp_exp2_table
0000000000ca9f30 S _ff_wp_log2_table
0000000000f24ab0 D _ff_wrapped_avframe_decoder
0000000000f249c0 D _ff_wrapped_avframe_encoder
00000000007ded84 T _ff_write_chained
000000000060ca00 T _ff_write_pass1_stats
00000000005b87ec T _ff_write_quant_matrix
0000000000f24ba0 D _ff_ws_snd1_decoder
0000000000f3a9f0 D _ff_wsaud_demuxer
0000000000f3ab40 D _ff_wsd_demuxer
0000000000f3aa98 D _ff_wsvqa_demuxer
0000000000f3abe8 D _ff_wtv_demuxer
0000000000ccd17c S _ff_wtv_guid
0000000000f3ac90 D _ff_wtv_muxer
0000000000f3ad58 D _ff_wv_demuxer
0000000000f3aea8 D _ff_wv_muxer
00000000008521b8 T _ff_wv_parse_header
0000000000f3ae00 D _ff_wve_demuxer
0000000000f3af70 D _ff_xa_demuxer
0000000000f09ca0 D _ff_xan_dpcm_decoder
0000000000f24c90 D _ff_xan_wc3_decoder
0000000000f25720 D _ff_xan_wc4_decoder
0000000000f07170 D _ff_xbin_decoder
0000000000f28890 D _ff_xbin_demuxer
0000000000f24d80 D _ff_xbm_decoder
0000000000f24e70 D _ff_xbm_encoder
0000000000f24f60 D _ff_xface_decoder
0000000000f25050 D _ff_xface_encoder
00000000007352c8 T _ff_xface_generate_face
0000000000cc1a74 S _ff_xface_probranges_2x2
0000000000cc1a5c S _ff_xface_probranges_per_level
0000000000f25140 D _ff_xl_decoder
0000000000f24400 D _ff_xma1_decoder
0000000000f244f0 D _ff_xma2_decoder
0000000000f25230 D _ff_xma_parser
0000000000f3b018 D _ff_xmv_demuxer
0000000000f25270 D _ff_xpm_decoder
0000000000f25360 D _ff_xsub_decoder
0000000000f25450 D _ff_xsub_encoder
0000000000f3b0c0 D _ff_xvag_demuxer
0000000000737674 T _ff_xvid_idct
0000000000a00758 T _ff_xvid_idct_init
0000000000f25540 D _ff_xwd_decoder
0000000000f25630 D _ff_xwd_encoder
0000000000f3b168 D _ff_xwma_demuxer
0000000000f25810 D _ff_y41p_decoder
0000000000f25900 D _ff_y41p_encoder
000000000034b428 T _ff_yadif_filter_frame
0000000000e7b758 S _ff_yadif_options
000000000034b858 T _ff_yadif_request_frame
0000000000f259f0 D _ff_ylc_decoder
0000000000f25ae0 D _ff_yop_decoder
0000000000f3b210 D _ff_yop_demuxer
000000000085cf84 T _ff_yuv2planeX_8_neon
0000000000a09cf0 T _ff_yuv2rgb_c_init_tables
0000000000cceccc S _ff_yuv2rgb_coeffs
0000000000891820 T _ff_yuv2rgb_get_func_ptr
000000000085e250 T _ff_yuv420p_to_abgr_neon
000000000085e028 T _ff_yuv420p_to_argb_neon
000000000085e364 T _ff_yuv420p_to_bgra_neon
000000000085e13c T _ff_yuv420p_to_rgba_neon
000000000085e678 T _ff_yuv422p_to_abgr_neon
000000000085e478 T _ff_yuv422p_to_argb_neon
000000000085e778 T _ff_yuv422p_to_bgra_neon
000000000085e578 T _ff_yuv422p_to_rgba_neon
0000000000f25bd0 D _ff_yuv4_decoder
0000000000f25cc0 D _ff_yuv4_encoder
0000000000f3b2b8 D _ff_yuv4mpegpipe_demuxer
0000000000f3b360 D _ff_yuv4mpegpipe_muxer
0000000000f00050 D _ff_zero12v_decoder
0000000000baca64 S _ff_zigzag_direct
0000000000bacaa4 S _ff_zigzag_scan
0000000000759884 T _ffio_close_null_buf
0000000000758ee8 T _ffio_ensure_seekback
0000000000758d30 T _ffio_fdopen
00000000007578d0 T _ffio_fill
00000000007597f4 T _ffio_free_dyn_buf
00000000007583e0 T _ffio_get_checksum
0000000000758ebc T _ffio_geturlcontext
0000000000758410 T _ffio_init_checksum
00000000007576d4 T _ffio_init_context
000000000083a2f0 T _ffio_limit
00000000007596b8 T _ffio_open_dyn_packet_buf
0000000000759834 T _ffio_open_null_buf
00000000007592c8 T _ffio_open_whitelist
000000000075864c T _ffio_read_indirect
0000000000758614 T _ffio_read_size
0000000000758d00 T _ffio_read_varlen
00000000007590c0 T _ffio_realloc_buf
0000000000759734 T _ffio_reset_dyn_buf
00000000007591bc T _ffio_rewind_with_probe_data
0000000000759054 T _ffio_set_buf_size
0000000000089358 T _ffmpeg_execute
0000000000f3c2d8 S _ffmpeg_exited
0000000000f3c398 S _ffmpeg_options
00000000000a1db0 T _ffmpeg_parse_options
0000000000089128 T _ffmpeg_var_cleanup
00000000000acebc T _ffmpegkit_log_callback_function
00000000000ad018 T _ffmpegkit_statistics_callback_function
00000000000a2d7c T _ffprobe_execute
0000000000f3cb00 S _ffprobe_options
00000000000a29f4 T _ffprobe_var_cleanup
00000000000992f0 T _fftools_copy_metadata
000000000009cd4c T _fftools_read_file
000000000075663c T _ffurl_accept
00000000007566dc T _ffurl_alloc
0000000000756f78 T _ffurl_close
0000000000756d30 T _ffurl_closep
0000000000756374 T _ffurl_connect
0000000000eb58b8 S _ffurl_context_class
000000000075740c T _ffurl_get_file_handle
000000000075742c T _ffurl_get_multi_file_handle
00000000007fca8c T _ffurl_get_protocols
00000000007574cc T _ffurl_get_short_seek
00000000007566a0 T _ffurl_handshake
0000000000756dc8 T _ffurl_open
0000000000756ba0 T _ffurl_open_whitelist
0000000000756dd8 T _ffurl_read
0000000000756f34 T _ffurl_read_complete
0000000000756620 T _ffurl_seek
00000000007574ec T _ffurl_shutdown
000000000075735c T _ffurl_size
0000000000756f4c T _ffurl_write
0000000000f3c6f8 S _file_overwrite
0000000000087920 T _filter_codec_opts
0000000000f3c680 S _filter_complex_nbthreads
0000000000f3c7b8 S _filter_hw_device
0000000000f3c668 S _filter_nbthreads
0000000000097374 T _filtergraph_is_simple
0000000000f3c368 S _filtergraphs
0000000000099740 T _find_codec_or_die
0000000000f3c788 S _find_stream_info
0000000000f3c2a8 S _first_report
0000000000e05648 S _forced_keyframes_const_names
0000000000f3c080 S _format_opts
0000000000f3c638 S _frame_bits_per_raw_sample
0000000000f3c4d0 S _frame_drop_threshold
000000000009b728 T _get_line
000000000009ce3c T _get_ost_filters
0000000000087760 T _get_preset_file
000000000009b7b0 T _get_preset_file_2
0000000000087c08 T _get_rotation
0000000000e05f70 S _groups
0000000000087b68 T _grow_array
0000000000089058 T _guess_input_channel_layout
0000000000ef206c D _handleSIGINT
0000000000ef2078 D _handleSIGPIPE
0000000000ef2068 D _handleSIGQUIT
0000000000ef2070 D _handleSIGTERM
0000000000ef2074 D _handleSIGXCPU
0000000000f3cbf0 S _hash
0000000000f3c020 S _hide_banner
0000000000097c6c T _hw_device_free_all
0000000000097830 T _hw_device_get_by_name
00000000000978b8 T _hw_device_init_from_string
0000000000097d00 T _hw_device_setup_for_decode
0000000000098150 T _hw_device_setup_for_encode
00000000000983c0 T _hw_device_setup_for_filter
0000000000f3c428 S _hw_devices
00000000000982c8 T _hwaccel_decode_init
0000000000ac4288 S _hwaccels
00000000000973e4 T _ifilter_parameters_from_frame
0000000000f3cb18 S _iformat
0000000000f3c758 S _ignore_unknown_streams
0000000000095574 T _init_complex_filtergraph
000000000009f0b4 T _init_complex_filters
0000000000083eec T _init_dynload
0000000000098588 T _init_options
0000000000083d94 T _init_opts
000000000009efb0 T _init_output_filter
00000000000953f4 T _init_simple_filtergraph
0000000000f3cbc0 S _input_filename
0000000000f3c1e8 S _input_files
0000000000f3c740 S _input_stream_potentially_available
0000000000f3c1b8 S _input_streams
0000000000f3c7e8 S _input_sync
0000000000f3c350 S _int_cb
000000000179f0e8 S _interleaveBytes
0000000000f3c6e0 S _intra_only
0000000000097464 T _ist_in_filtergraph
0000000000f3c290 S _keyboard_last_time
00000000014abf00 S _lastCommandOutput
00000000014abf08 S _lastReturnCode
0000000000f3c278 S _last_time
00000000000847ec T _locate_option
00000000000acb4c T _logCallbackDataAdd
0000000000f3cc68 S _log_buffer
0000000000f3cc80 S _log_buffer_size
0000000000083e20 T _log_callback_report
0000000000f3cc98 S _log_mutex
0000000000f3c038 S _longjmp_value
0000000000f3c2f0 S _main_ffmpeg_return_code
0000000000f3cb30 S _main_ffprobe_return_code
0000000000f3c650 S _max_error_rate
0000000000f3c380 S _nb_filtergraphs
0000000000f3c158 S _nb_frames_drop
0000000000f3c128 S _nb_frames_dup
0000000000f3c410 S _nb_hw_devices
0000000000f3c200 S _nb_input_files
0000000000f3c1d0 S _nb_input_streams
0000000000f3c170 S _nb_output_dumped
0000000000f3c260 S _nb_output_files
0000000000f3c230 S _nb_output_streams
0000000000f3cc08 S _nb_streams
0000000000f3cc38 S _nb_streams_frames
0000000000f3cc20 S _nb_streams_packets
000000000009ea58 T _new_attachment_stream
000000000009e1f8 T _new_audio_stream
000000000009e9f0 T _new_data_stream
000000000009bb98 T _new_output_stream
000000000009ea80 T _new_subtitle_stream
000000000009ea24 T _new_unknown_stream
000000000009cf50 T _new_video_stream
0000000000f3cb48 S _next_registered_writer_idx
0000000000f3c710 S _no_file_overwrite
0000000000f3c320 S _oldtty
00000000000a1ca8 T _open_files
000000000009ad08 T _open_input_file
000000000009f118 T _open_output_file
00000000000986f8 T _opt_abort_on
0000000000098e20 T _opt_attach
00000000000988dc T _opt_audio_codec
00000000000a1544 T _opt_audio_filters
00000000000a0f2c T _opt_audio_frames
00000000000a186c T _opt_audio_qscale
00000000000a135c T _opt_bitrate
00000000000a16fc T _opt_channel_layout
0000000000085ab4 T _opt_cpuflags
000000000009896c T _opt_data_codec
00000000000a0f5c T _opt_data_frames
000000000008509c T _opt_default
00000000000a0f8c T _opt_default_new
00000000000a189c T _opt_filter_complex
00000000000a1958 T _opt_filter_complex_script
00000000000991ac T _opt_filter_hw_device
0000000000099120 T _opt_init_hw_device
0000000000084b18 T _opt_loglevel
000000000009899c T _opt_map
0000000000098e6c T _opt_map_channel
0000000000085afc T _opt_max_alloc
00000000000a12e4 T _opt_old2new
00000000000a103c T _opt_preset
00000000000a14ac T _opt_profile
00000000000a1f38 T _opt_progress
00000000000a13e4 T _opt_qscale
0000000000099640 T _opt_recording_timestamp
0000000000085af4 T _opt_report
0000000000098848 T _opt_sameq
00000000000990f0 T _opt_sdp_file
00000000000987cc T _opt_stats_period
000000000009ed10 T _opt_streamid
000000000009893c T _opt_subtitle_codec
00000000000a073c T _opt_target
00000000000a1664 T _opt_timecode
0000000000085b4c T _opt_timelimit
000000000009887c T _opt_video_channel
000000000009890c T _opt_video_codec
00000000000a1514 T _opt_video_filters
00000000000a0efc T _opt_video_frames
00000000000988ac T _opt_video_standard
00000000000a0e48 T _opt_vstats
00000000000a0e18 T _opt_vstats_file
00000000000a1574 T _opt_vsync
0000000000f3c248 S _output_files
0000000000f3c218 S _output_streams
00000000000848c8 T _parse_loglevel
000000000009ccd8 T _parse_matrix_coeffs
0000000000099220 T _parse_meta_type
0000000000083f48 T _parse_number_or_die
00000000000846e8 T _parse_optgroup
0000000000084234 T _parse_option
00000000000845fc T _parse_options
000000000008401c T _parse_time_or_die
000000000179f0f0 S _planar2x
0000000000085bb8 T _print_error
0000000000f3cb60 S _print_format
0000000000f3cbd8 S _print_input_filename
0000000000f3c5f0 S _print_stats
0000000000f3c0f8 S _program_birth_year
0000000000f3c0e0 S _program_name
0000000000f3c1a0 S _progress_avio
0000000000f3c608 S _qp_hist
0000000000f3c3f8 S _qp_histogram
0000000000f3cba8 S _read_intervals
0000000000f3cae8 S _read_intervals_nb
0000000000087714 T _read_yesno
0000000000083ef0 T _register_exit
0000000000f3ccb0 S _registered_writers
00000000000acdf4 T _removeExecution
0000000000088fa8 T _remove_avoptions
00000000014abee0 S _report_callback
00000000014abed8 S _report_file
0000000000ef0f7c D _report_file_level
0000000000f3c0b0 S _resample_opts
0000000000f3c338 S _restore_tty
000000000087c604 T _rgb12to15
000000000087c874 T _rgb12tobgr12
000000000179f0f8 S _rgb15to16
000000000087c7a0 T _rgb15to24
000000000179f100 S _rgb15to32
000000000087c840 T _rgb15tobgr15
000000000087c810 T _rgb15tobgr16
000000000179f108 S _rgb15tobgr24
000000000087c728 T _rgb15tobgr32
000000000179f110 S _rgb16to15
000000000087c678 T _rgb16to24
000000000179f118 S _rgb16to32
000000000087c6f8 T _rgb16tobgr15
000000000087c6cc T _rgb16tobgr16
000000000179f120 S _rgb16tobgr24
000000000087c5a8 T _rgb16tobgr32
000000000179f128 S _rgb24to15
000000000179f130 S _rgb24to16
000000000087c560 T _rgb24to32
000000000179f138 S _rgb24tobgr15
000000000179f140 S _rgb24tobgr16
000000000179f148 S _rgb24tobgr24
000000000179f150 S _rgb24tobgr32
0000000000a06010 T _rgb2rgb_init_aarch64
000000000179f158 S _rgb32to15
000000000179f160 S _rgb32to16
000000000087c524 T _rgb32to24
000000000179f168 S _rgb32tobgr15
000000000179f170 S _rgb32tobgr16
000000000179f178 S _rgb32tobgr24
000000000087caf0 T _rgb48to64_bswap
000000000087cab8 T _rgb48to64_nobswap
000000000087c8e4 T _rgb48tobgr48_bswap
000000000087c8a0 T _rgb48tobgr48_nobswap
000000000087ca70 T _rgb48tobgr64_bswap
000000000087ca34 T _rgb48tobgr64_nobswap
000000000087c9f0 T _rgb64to48_bswap
000000000087c9b8 T _rgb64to48_nobswap
000000000087c970 T _rgb64tobgr48_bswap
000000000087c934 T _rgb64tobgr48_nobswap
0000000000f3c110 S _run_as_daemon
0000000000f3c7a0 S _sdp_filename
0000000000f3cc50 S _selected_streams
000000000008933c T _set_report_callback
0000000000087adc T _setup_find_stream_info_opts
0000000000085c4c T _show_banner
0000000000086b2c T _show_bsfs
0000000000086184 T _show_buildconf
0000000000086544 T _show_codecs
0000000000086dcc T _show_colors
0000000000f3cb90 S _show_data_hash
000000000008691c T _show_decoders
0000000000086504 T _show_demuxers
0000000000086524 T _show_devices
0000000000086b10 T _show_encoders
0000000000086c1c T _show_filters
00000000000862ec T _show_formats
0000000000087120 T _show_help
00000000000841d0 T _show_help_children
00000000000a1a00 T _show_help_default_ffmpeg
00000000000a2938 T _show_help_default_ffprobe
0000000000084094 T _show_help_options
00000000000985ec T _show_hwaccels
0000000000086f28 T _show_layouts
00000000000862ac T _show_license
00000000000864e4 T _show_muxers
0000000000086e4c T _show_pix_fmts
0000000000f3cad0 S _show_private_data
0000000000086b8c T _show_protocols
0000000000087090 T _show_sample_fmts
0000000000087f28 T _show_sinks
0000000000087ca4 T _show_sources
00000000000a1c48 T _show_usage
0000000000f3ca70 S _show_value_unit
0000000000086160 T _show_version
000000000179f180 S _shuffle_bytes_0321
000000000179f188 S _shuffle_bytes_1230
000000000179f190 S _shuffle_bytes_2103
000000000179f198 S _shuffle_bytes_3012
000000000179f1a0 S _shuffle_bytes_3210
00000000000854f0 T _split_commandline
0000000000f3c578 S _start_at_zero
00000000000acc04 T _statisticsCallbackDataAdd
0000000000f3c6c8 S _stats_period
0000000000f3c620 S _stdin_interaction
0000000000f3cb78 S _stream_specifier
0000000000098650 T _strip_specifiers
00000000000889bc T _sub2video_update
0000000000f3c3e0 S _subtitle_out
0000000000a045a0 T _swr_alloc
000000000085b648 T _swr_alloc_set_opts
0000000000a045e0 T _swr_build_matrix
0000000000a05754 T _swr_close
000000000085ba48 T _swr_convert
000000000085c5ec T _swr_drop_output
0000000000cce124 S _swr_ffversion
0000000000a05710 T _swr_free
0000000000858b40 T _swr_get_class
000000000085c7bc T _swr_get_delay
000000000085c7f0 T _swr_get_out_samples
0000000000a05758 T _swr_init
000000000085c680 T _swr_inject_silence
000000000085ba38 T _swr_is_initialized
000000000085c914 T _swr_next_pts
0000000000f3c068 S _swr_opts
000000000085b624 T _swr_set_channel_mapping
000000000085c888 T _swr_set_compensation
0000000000858b58 T _swr_set_matrix
000000000085b60c T _swresample_configuration
000000000085b618 T _swresample_license
000000000085b600 T _swresample_version
00000000008567c4 T _swri_audio_convert
000000000085667c T _swri_audio_convert_alloc
00000000008567c0 T _swri_audio_convert_free
0000000000a041fc T _swri_audio_convert_init_aarch64
0000000000a042ec T _swri_dither_init
0000000000858388 T _swri_get_dither
00000000008589e4 T _swri_noise_shaping_double
0000000000858890 T _swri_noise_shaping_float
00000000008585a0 T _swri_noise_shaping_int16
0000000000858724 T _swri_noise_shaping_int32
0000000000855dd4 T _swri_oldapi_conv_flt_to_s16_neon
0000000000855e78 T _swri_oldapi_conv_fltp_to_s16_2ch_neon
0000000000855f68 T _swri_oldapi_conv_fltp_to_s16_nch_neon
000000000085b8a8 T _swri_realloc_audio
0000000000858f78 T _swri_rematrix
0000000000a056cc T _swri_rematrix_free
0000000000a04e68 T _swri_rematrix_init
0000000000a042a0 T _swri_resample_dsp_aarch64_init
000000000085ad5c T _swri_resample_dsp_init
0000000000ed0600 S _swri_resampler
0000000000890218 T _sws_addVec
00000000008904fc T _sws_allocVec
000000000088fb50 T _sws_alloc_context
000000000088f9c0 T _sws_alloc_set_opts
00000000008906fc T _sws_cloneVec
0000000000890644 T _sws_convVec
0000000000885b50 T _sws_convertPalette8ToPacked24
0000000000885b30 T _sws_convertPalette8ToPacked32
0000000000f3c050 S _sws_dict
000000000088fca0 T _sws_freeContext
0000000000890738 T _sws_freeFilter
0000000000890278 T _sws_freeVec
0000000000890778 T _sws_getCachedContext
00000000008917fc T _sws_getCoefficients
000000000088fa8c T _sws_getColorspaceDetails
0000000000890574 T _sws_getConstVec
000000000088fa40 T _sws_getContext
000000000088fea4 T _sws_getDefaultFilter
0000000000890108 T _sws_getGaussianVec
00000000008901d8 T _sws_getIdentityVec
00000000008653e4 T _sws_get_class
0000000000a07a84 T _sws_init_context
000000000088f018 T _sws_isSupportedEndiannessConversion
000000000088efd8 T _sws_isSupportedInput
000000000088eff8 T _sws_isSupportedOutput
000000000089034c T _sws_normalizeVec
00000000008903b4 T _sws_printVec2
000000000087f7cc T _sws_scale
00000000008901e4 T _sws_scaleVec
000000000088f038 T _sws_setColorspaceDetails
00000000008902a0 T _sws_shiftVec
00000000008905e4 T _sws_subVec
000000000088efc0 T _swscale_configuration
000000000088efcc T _swscale_license
000000000088efb4 T _swscale_version
0000000000088d00 T _term_exit
0000000000088d78 T _term_init
0000000000f3c2c0 S _transcode_init_done
0000000000098484 T _uninit_options
0000000000083dc4 T _uninit_opts
0000000000085404 T _uninit_parse_context
0000000000f3caa0 S _use_byte_value_binary_prefix
0000000000f3ca88 S _use_value_prefix
0000000000f3cab8 S _use_value_sexagesimal_format
000000000179f1a8 S _uyvytoyuv420
000000000179f1b0 S _uyvytoyuv422
0000000000c93c30 S _vc2_qm_col_tab
0000000000c93c44 S _vc2_qm_flat_tab
0000000000f3c4b8 S _video_sync_method
0000000000f3c7d0 S _vstats_filename
0000000000f3c698 S _vstats_version
000000000179f1b8 S _vu9_to_vu12
0000000000f3c188 S _want_sdp
0000000000f3c0c8 S _warned_cfg
00000000014abed0 S _window
0000000000964678 T _x264_10_cabac_encode_bypass_asm
0000000000964588 T _x264_10_cabac_encode_decision_asm
00000000009646a0 T _x264_10_cabac_encode_terminal_asm
00000000009644d4 T _x264_10_nal_escape_neon
000000000095c20c T _x264_8_add16x16_idct8_neon
000000000095c2f4 T _x264_8_add16x16_idct_dc_neon
000000000095bf68 T _x264_8_add16x16_idct_neon
000000000095bda4 T _x264_8_add4x4_idct_neon
000000000095be74 T _x264_8_add8x4_idct_neon
000000000095bfa0 T _x264_8_add8x8_idct8_neon
000000000095c230 T _x264_8_add8x8_idct_dc_neon
000000000095bf54 T _x264_8_add8x8_idct_neon
000000000095b860 T _x264_8_cabac_encode_bypass_asm
000000000095b770 T _x264_8_cabac_encode_decision_asm
000000000095b888 T _x264_8_cabac_encode_terminal_asm
00000000009641cc T _x264_8_coeff_last15_neon
00000000009641f8 T _x264_8_coeff_last16_neon
0000000000964190 T _x264_8_coeff_last4_aarch64
0000000000964220 T _x264_8_coeff_last64_neon
00000000009641a4 T _x264_8_coeff_last8_aarch64
000000000096437c T _x264_8_coeff_level_run15_neon
0000000000964400 T _x264_8_coeff_level_run16_neon
00000000009642a0 T _x264_8_coeff_level_run4_aarch64
0000000000964308 T _x264_8_coeff_level_run8_neon
000000000095b898 T _x264_8_dct4x4dc_neon
000000000095da34 T _x264_8_deblock_h_chroma_422_intra_neon
000000000095d6d0 T _x264_8_deblock_h_chroma_422_neon
000000000095d89c T _x264_8_deblock_h_chroma_intra_mbaff_neon
000000000095d948 T _x264_8_deblock_h_chroma_intra_neon
000000000095d718 T _x264_8_deblock_h_chroma_mbaff_neon
000000000095d578 T _x264_8_deblock_h_chroma_neon
000000000095d1a8 T _x264_8_deblock_h_luma_intra_neon
000000000095cd98 T _x264_8_deblock_h_luma_neon
000000000095dbe8 T _x264_8_deblock_strength_neon
000000000095d7f8 T _x264_8_deblock_v_chroma_intra_neon
000000000095d488 T _x264_8_deblock_v_chroma_neon
000000000095cfd0 T _x264_8_deblock_v_luma_intra_neon
000000000095cc38 T _x264_8_deblock_v_luma_neon
0000000000963fd4 T _x264_8_decimate_score15_neon
0000000000964048 T _x264_8_decimate_score16_neon
00000000009640b8 T _x264_8_decimate_score64_neon
000000000096447c T _x264_8_denoise_dct_neon
0000000000963f30 T _x264_8_dequant_4x4_dc_neon
0000000000963d54 T _x264_8_dequant_4x4_neon
0000000000963e38 T _x264_8_dequant_8x8_neon
000000000095f068 T _x264_8_frame_init_lowres_core_neon
000000000095ee9c T _x264_8_hpel_filter_neon
000000000095b910 T _x264_8_idct4x4dc_neon
000000000095f380 T _x264_8_integral_init4h_neon
000000000095f488 T _x264_8_integral_init4v_neon
000000000095f3e4 T _x264_8_integral_init8h_neon
000000000095f500 T _x264_8_integral_init8v_neon
000000000095f158 T _x264_8_load_deinterleave_chroma_fdec_neon
000000000095f150 T _x264_8_load_deinterleave_chroma_fenc_neon
000000000095f75c T _x264_8_mbtree_fix8_pack_neon
000000000095f7ac T _x264_8_mbtree_fix8_unpack_neon
000000000095f54c T _x264_8_mbtree_propagate_cost_neon
000000000095f5f8 T _x264_8_mbtree_propagate_list_internal_neon
000000000095e960 T _x264_8_mc_chroma_neon
000000000095e934 T _x264_8_mc_copy_w16_neon
000000000095e8dc T _x264_8_mc_copy_w4_neon
000000000095e908 T _x264_8_mc_copy_w8_neon
000000000095e4ec T _x264_8_mc_weight_w16_neon
000000000095e67c T _x264_8_mc_weight_w16_nodenom_neon
000000000095e798 T _x264_8_mc_weight_w16_offsetadd_neon
000000000095e85c T _x264_8_mc_weight_w16_offsetsub_neon
000000000095e454 T _x264_8_mc_weight_w20_neon
000000000095e604 T _x264_8_mc_weight_w20_nodenom_neon
000000000095e754 T _x264_8_mc_weight_w20_offsetadd_neon
000000000095e818 T _x264_8_mc_weight_w20_offsetsub_neon
000000000095e5bc T _x264_8_mc_weight_w4_neon
000000000095e71c T _x264_8_mc_weight_w4_nodenom_neon
000000000095e7f0 T _x264_8_mc_weight_w4_offsetadd_neon
000000000095e8b4 T _x264_8_mc_weight_w4_offsetsub_neon
000000000095e564 T _x264_8_mc_weight_w8_neon
000000000095e6d8 T _x264_8_mc_weight_w8_nodenom_neon
000000000095e7c4 T _x264_8_mc_weight_w8_offsetadd_neon
000000000095e888 T _x264_8_mc_weight_w8_offsetsub_neon
000000000095f6f0 T _x264_8_memcpy_aligned_neon
000000000095f738 T _x264_8_memzero_aligned_neon
000000000095b6bc T _x264_8_nal_escape_neon
00000000009610b4 T _x264_8_pixel_asd8_neon
000000000095e3e8 T _x264_8_pixel_avg2_w16_neon
000000000095e414 T _x264_8_pixel_avg2_w20_neon
000000000095e390 T _x264_8_pixel_avg2_w4_neon
000000000095e3bc T _x264_8_pixel_avg2_w8_neon
000000000095df48 T _x264_8_pixel_avg_16x16_neon
000000000095df24 T _x264_8_pixel_avg_16x8_neon
000000000095de94 T _x264_8_pixel_avg_4x16_neon
000000000095de28 T _x264_8_pixel_avg_4x2_neon
000000000095de4c T _x264_8_pixel_avg_4x4_neon
000000000095de70 T _x264_8_pixel_avg_4x8_neon
000000000095df00 T _x264_8_pixel_avg_8x16_neon
000000000095deb8 T _x264_8_pixel_avg_8x4_neon
000000000095dedc T _x264_8_pixel_avg_8x8_neon
00000000009626f0 T _x264_8_pixel_hadamard_ac_16x16_neon
00000000009626a8 T _x264_8_pixel_hadamard_ac_16x8_neon
0000000000962668 T _x264_8_pixel_hadamard_ac_8x16_neon
000000000096262c T _x264_8_pixel_hadamard_ac_8x8_neon
0000000000962178 T _x264_8_pixel_sa8d_16x16_neon
0000000000962158 T _x264_8_pixel_sa8d_8x8_neon
00000000009625a4 T _x264_8_pixel_sa8d_satd_16x16_neon
000000000095fb4c T _x264_8_pixel_sad_16x16_neon
000000000095fabc T _x264_8_pixel_sad_16x8_neon
000000000095f890 T _x264_8_pixel_sad_4x16_neon
000000000095f800 T _x264_8_pixel_sad_4x4_neon
000000000095f834 T _x264_8_pixel_sad_4x8_neon
000000000095f9ec T _x264_8_pixel_sad_8x16_neon
000000000095f93c T _x264_8_pixel_sad_8x4_neon
000000000095f97c T _x264_8_pixel_sad_8x8_neon
0000000000960298 T _x264_8_pixel_sad_x3_16x16_neon
0000000000960128 T _x264_8_pixel_sad_x3_16x8_neon
000000000095fc5c T _x264_8_pixel_sad_x3_4x4_neon
000000000095fcd8 T _x264_8_pixel_sad_x3_4x8_neon
000000000095ff44 T _x264_8_pixel_sad_x3_8x16_neon
000000000095fdac T _x264_8_pixel_sad_x3_8x4_neon
000000000095fe40 T _x264_8_pixel_sad_x3_8x8_neon
0000000000960cf8 T _x264_8_pixel_sad_x4_16x16_neon
0000000000960b28 T _x264_8_pixel_sad_x4_16x8_neon
0000000000960548 T _x264_8_pixel_sad_x4_4x4_neon
00000000009605d8 T _x264_8_pixel_sad_x4_4x8_neon
00000000009608c8 T _x264_8_pixel_sad_x4_8x16_neon
00000000009606d8 T _x264_8_pixel_sad_x4_8x4_neon
0000000000960788 T _x264_8_pixel_sad_x4_8x8_neon
0000000000961fd8 T _x264_8_pixel_satd_16x16_neon
0000000000961fa4 T _x264_8_pixel_satd_16x8_neon
0000000000962088 T _x264_8_pixel_satd_4x16_neon
0000000000961cc0 T _x264_8_pixel_satd_4x4_neon
0000000000961d30 T _x264_8_pixel_satd_4x8_neon
0000000000961e3c T _x264_8_pixel_satd_8x16_neon
0000000000961d74 T _x264_8_pixel_satd_8x4_neon
0000000000961e1c T _x264_8_pixel_satd_8x8_neon
0000000000961654 T _x264_8_pixel_ssd_16x16_neon
0000000000961544 T _x264_8_pixel_ssd_16x8_neon
00000000009611e4 T _x264_8_pixel_ssd_4x16_neon
000000000096110c T _x264_8_pixel_ssd_4x4_neon
0000000000961158 T _x264_8_pixel_ssd_4x8_neon
00000000009613f8 T _x264_8_pixel_ssd_8x16_neon
00000000009612f0 T _x264_8_pixel_ssd_8x4_neon
000000000096134c T _x264_8_pixel_ssd_8x8_neon
0000000000961864 T _x264_8_pixel_ssd_nv12_core_neon
00000000009628fc T _x264_8_pixel_ssim_4x4x2_core_neon
00000000009629b4 T _x264_8_pixel_ssim_end4_neon
0000000000961be0 T _x264_8_pixel_var2_8x16_neon
0000000000961b00 T _x264_8_pixel_var2_8x8_neon
0000000000961a68 T _x264_8_pixel_var_16x16_neon
00000000009619d8 T _x264_8_pixel_var_8x16_neon
0000000000961948 T _x264_8_pixel_var_8x8_neon
0000000000961068 T _x264_8_pixel_vsad_neon
000000000095f180 T _x264_8_plane_copy_core_neon
000000000095f224 T _x264_8_plane_copy_deinterleave_neon
000000000095f268 T _x264_8_plane_copy_deinterleave_rgb_neon
000000000095f30c T _x264_8_plane_copy_interleave_core_neon
000000000095f1d0 T _x264_8_plane_copy_swap_core_neon
000000000096360c T _x264_8_predict_16x16_dc_left_neon
0000000000963664 T _x264_8_predict_16x16_dc_neon
00000000009635f0 T _x264_8_predict_16x16_dc_top_neon
000000000096370c T _x264_8_predict_16x16_h_neon
00000000009637e8 T _x264_8_predict_16x16_p_neon
0000000000963798 T _x264_8_predict_16x16_v_neon
0000000000962aec T _x264_8_predict_4x4_dc_neon
0000000000962b38 T _x264_8_predict_4x4_dc_top_neon
0000000000962bc0 T _x264_8_predict_4x4_ddl_neon
0000000000962b64 T _x264_8_predict_4x4_ddr_neon
0000000000962a9c T _x264_8_predict_4x4_h_aarch64
0000000000962ad4 T _x264_8_predict_4x4_v_aarch64
00000000009634b0 T _x264_8_predict_8x16c_dc_left_neon
0000000000963390 T _x264_8_predict_8x16c_dc_neon
0000000000963588 T _x264_8_predict_8x16c_dc_top_neon
0000000000963198 T _x264_8_predict_8x16c_h_neon
000000000096327c T _x264_8_predict_8x16c_p_neon
000000000096322c T _x264_8_predict_8x16c_v_neon
0000000000962c00 T _x264_8_predict_8x8_dc_neon
0000000000962cc4 T _x264_8_predict_8x8_ddl_neon
0000000000962d2c T _x264_8_predict_8x8_ddr_neon
0000000000962c48 T _x264_8_predict_8x8_h_neon
0000000000962e58 T _x264_8_predict_8x8_hd_neon
0000000000962ec0 T _x264_8_predict_8x8_hu_neon
0000000000962c94 T _x264_8_predict_8x8_v_neon
0000000000962d8c T _x264_8_predict_8x8_vl_neon
0000000000962dec T _x264_8_predict_8x8_vr_neon
0000000000962f5c T _x264_8_predict_8x8c_dc_left_neon
0000000000962fac T _x264_8_predict_8x8c_dc_neon
0000000000962f30 T _x264_8_predict_8x8c_dc_top_neon
0000000000963054 T _x264_8_predict_8x8c_h_neon
00000000009630c8 T _x264_8_predict_8x8c_p_neon
00000000009630a0 T _x264_8_predict_8x8c_v_aarch64
000000000095dd9c T _x264_8_prefetch_fenc_420_aarch64
000000000095dddc T _x264_8_prefetch_fenc_422_aarch64
000000000095dd5c T _x264_8_prefetch_ref_aarch64
00000000009638ec T _x264_8_quant_2x2_dc_neon
000000000096392c T _x264_8_quant_4x4_dc_neon
00000000009639a0 T _x264_8_quant_4x4_neon
0000000000963a14 T _x264_8_quant_4x4x4_neon
0000000000963bc0 T _x264_8_quant_8x8_neon
000000000095f350 T _x264_8_store_interleave_chroma_neon
000000000095bd74 T _x264_8_sub16x16_dct8_neon
000000000095bb08 T _x264_8_sub16x16_dct_neon
000000000095b97c T _x264_8_sub4x4_dct_neon
000000000095c58c T _x264_8_sub8x16_dct_dc_neon
000000000095bb50 T _x264_8_sub8x8_dct8_neon
000000000095c4d4 T _x264_8_sub8x8_dct_dc_neon
000000000095baf0 T _x264_8_sub8x8_dct_neon
000000000095c6d0 T _x264_8_zigzag_interleave_8x8_cavlc_neon
000000000095c948 T _x264_8_zigzag_scan_4x4_field_neon
000000000095c738 T _x264_8_zigzag_scan_4x4_frame_neon
000000000095c9e0 T _x264_8_zigzag_scan_8x8_field_neon
000000000095c964 T _x264_8_zigzag_scan_8x8_frame_neon
000000000095c758 T _x264_8_zigzag_sub_4x4_field_neon
000000000095c850 T _x264_8_zigzag_sub_4x4_frame_neon
000000000095c7cc T _x264_8_zigzag_sub_4x4ac_field_neon
000000000095c8c4 T _x264_8_zigzag_sub_4x4ac_frame_neon
000000000095ca40 T _x264_8_zigzag_sub_8x8_field_neon
000000000095cb3c T _x264_8_zigzag_sub_8x8_frame_neon
0000000000119fe0 T _x265_alloc_analysis_data
000000000011aaa0 T _x265_api_get_192
000000000011ac00 T _x265_api_query
0000000000ef2830 D _x265_build_info_str
000000000011a980 T _x265_cleanup
000000000011d2dc T _x265_cpu_cpuid
000000000011d2d0 T _x265_cpu_cpuid_test
000000000011d2d8 T _x265_cpu_emms
000000000011d2ec T _x265_cpu_fast_neon_mrc_test
000000000011d2e8 T _x265_cpu_neon_test
000000000011d2e4 T _x265_cpu_xgetbv
0000000000119978 T _x265_csvlog_encode
00000000001192a4 T _x265_csvlog_frame
00000000001185cc T _x265_csvlog_open
000000000011adf0 T _x265_dither_image
0000000000119ee0 T _x265_encoder_close
0000000000119f48 T _x265_encoder_ctu_info
0000000000119130 T _x265_encoder_encode
0000000000119900 T _x265_encoder_get_stats
0000000000118ae0 T _x265_encoder_headers
0000000000119f20 T _x265_encoder_intra_refresh
0000000000119914 T _x265_encoder_log
000000000011815c T _x265_encoder_open_192
0000000000118c34 T _x265_encoder_parameters
0000000000118c58 T _x265_encoder_reconfig
0000000000118fa4 T _x265_encoder_reconfig_zone
0000000000ac51cc S _x265_entropyStateBits
000000000011a6e8 T _x265_free_analysis_data
0000000000119fa8 T _x265_get_ref_frame_list
0000000000119f80 T _x265_get_slicetype_poc_and_scenecut
0000000000ac9d2c S _x265_max_bit_depth
00000000001c9c34 T _x265_param_alloc
00000000000ec9cc T _x265_param_apply_profile
00000000001c9c60 T _x265_param_default
00000000001c9fa4 T _x265_param_default_preset
00000000001c9c3c T _x265_param_free
00000000001cb1f0 T _x265_param_parse
000000000011a984 T _x265_picture_alloc
000000000011aa18 T _x265_picture_free
000000000011a98c T _x265_picture_init
0000000000119fb8 T _x265_set_analysis_data
0000000000ef2828 D _x265_version_str
0000000000118568 T _x265_zone_alloc
000000000011aa1c T _x265_zone_free
00000000001ca5d8 T _x265_zone_param_parse
000000000179f1c0 S _yuv422ptouyvy
000000000179f1c8 S _yuv422ptoyuy2
000000000179f1d0 S _yuy2toyv12
000000000179f1d8 S _yuyvtoyuv420
000000000179f1e0 S _yuyvtoyuv422
000000000179f1e8 S _yv12touyvy
000000000179f1f0 S _yv12toyuy2
000000000179f1f8 S _yvu9_to_yuy2
